(dp1
cnumpy.core.multiarray
scalar
p2
(cnumpy
dtype
p3
(S'i8'
I0
I1
tRp4
(I3
S'<'
NNNI-1
I-1
I0
tbS'\xd6\x07\x00\x00\x00\x00\x00\x00'
tRp5
(dp6
S'PBM Medicare'
p7
(dp8
S'Available'
p9
(dp10
S'Non-PA'
p11
(dp12
S'All Lives'
p13
I0
sS'Copay'
p14
I0
sS'Rx Lives'
p15
I0
ssS'PA plus'
p16
(dp17
g13
I0
sg14
I0
sg15
I0
ssS'PA only'
p18
(dp19
g13
I0
sg14
I0
sg15
I0
ssS'No Restrictions'
p20
(dp21
g13
I0
sg14
I0
sg15
I0
sssS'Med'
p22
(dp23
g11
(dp24
g13
I0
sg14
I0
sg15
I0
ssg16
(dp25
g13
I0
sg14
I0
sg15
I0
ssg18
(dp26
g13
I0
sg14
I0
sg15
I0
ssg20
(dp27
g13
I0
sg14
I0
sg15
I0
sssS'Not Available'
p28
(dp29
g11
(dp30
g13
I0
sg14
I0
sg15
I0
ssg16
(dp31
g13
I0
sg14
I0
sg15
I0
ssg18
(dp32
g13
I0
sg14
I0
sg15
I0
ssg20
(dp33
g13
I0
sg14
I0
sg15
I0
sssS'Tier 2'
p34
(dp35
g11
(dp36
g13
I0
sg14
I0
sg15
I0
ssg16
(dp37
g13
I0
sg14
I0
sg15
I0
ssg18
(dp38
g13
I0
sg14
I0
sg15
I0
ssg20
(dp39
g13
I0
sg14
I0
sg15
I0
sssS'Tier 3'
p40
(dp41
g11
(dp42
g13
I0
sg14
I0
sg15
I0
ssg16
(dp43
g13
I0
sg14
I0
sg15
I0
ssg18
(dp44
g13
I0
sg14
I0
sg15
I0
ssg20
(dp45
g13
I0
sg14
I0
sg15
I0
sssS'Tier 1'
p46
(dp47
g11
(dp48
g13
I0
sg14
I0
sg15
I0
ssg16
(dp49
g13
I0
sg14
I0
sg15
I0
ssg18
(dp50
g13
I0
sg14
I0
sg15
I0
ssg20
(dp51
g13
I0
sg14
I0
sg15
I0
sssS'Tier 4'
p52
(dp53
g11
(dp54
g13
I0
sg14
I0
sg15
I0
ssg16
(dp55
g13
I0
sg14
I0
sg15
I0
ssg18
(dp56
g13
I0
sg14
I0
sg15
I0
ssg20
(dp57
g13
I0
sg14
I0
sg15
I0
sssS'Tier 5-8'
p58
(dp59
g11
(dp60
g13
I0
sg14
I0
sg15
I0
ssg16
(dp61
g13
I0
sg14
I0
sg15
I0
ssg18
(dp62
g13
I0
sg14
I0
sg15
I0
ssg20
(dp63
g13
I0
sg14
I0
sg15
I0
ssssS'Managed Medicaid'
p64
(dp65
g9
(dp66
g11
(dp67
g13
I0
sg14
I0
sg15
I0
ssg16
(dp68
g13
I0
sg14
I0
sg15
I0
ssg18
(dp69
g13
I0
sg14
I0
sg15
I0
ssg20
(dp70
g13
I0
sg14
I0
sg15
I0
sssg22
(dp71
g11
(dp72
g13
I0
sg14
I0
sg15
I0
ssg16
(dp73
g13
I0
sg14
I0
sg15
I0
ssg18
(dp74
g13
g2
(g3
(S'f8'
I0
I1
tRp75
(I3
S'<'
NNNI-1
I-1
I0
tbS'\x00\x00\x00\x00\x04d\tA'
tRp76
sg14
F0
sg15
g2
(g75
S'\x00\x00\x00\x00\xfec\tA'
tRp77
ssg20
(dp78
g13
I0
sg14
I0
sg15
I0
sssg28
(dp79
g11
(dp80
g13
I0
sg14
I0
sg15
I0
ssg16
(dp81
g13
I0
sg14
I0
sg15
I0
ssg18
(dp82
g13
I0
sg14
I0
sg15
I0
ssg20
(dp83
g13
g2
(g75
S'\xe5nK\xbb\xe9\x93vA'
tRp84
sg14
F0
sg15
g2
(g75
S'\xb1h\xff\xfd\xb5\x18vA'
tRp85
sssg34
(dp86
g11
(dp87
g13
I0
sg14
I0
sg15
I0
ssg16
(dp88
g13
g2
(g75
S'\xc7q\x1c\xc7qb\xfb@'
tRp89
sg14
F26.666666666666668
sg15
g2
(g75
S'\xc7q\x1c\xc7qb\xfb@'
tRp90
ssg18
(dp91
g13
g2
(g75
S'\xbe\xbb\xbb[\xceNOA'
tRp92
sg14
F4.7403802013123952
sg15
g2
(g75
S'/\xd8\x82\r\xb8*OA'
tRp93
ssg20
(dp94
g13
g2
(g75
S'Z\xb0\x05c\xc4\xefVA'
tRp95
sg14
F16.80845074711533
sg15
g2
(g75
S'\x9a\x99\x99Q\x82\x9aVA'
tRp96
sssg40
(dp97
g11
(dp98
g13
g2
(g75
S'""""\xe9],A'
tRp99
sg14
F1
sg15
g2
(g75
S'\x16l\xc1\x16\xdd],A'
tRp100
ssg16
(dp101
g13
I0
sg14
I0
sg15
I0
ssg18
(dp102
g13
g2
(g75
S'\xe9\x93>\xe9\xe5\x90\x12A'
tRp103
sg14
F0
sg15
g2
(g75
S'J\x9f\xf4I\xf1>\x12A'
tRp104
ssg20
(dp105
g13
g2
(g75
S'\x18\x86a\xd8\xec-1A'
tRp106
sg14
F0.41666666666666663
sg15
g2
(g75
S'\x86a\x18\x06\xc0#1A'
tRp107
sssg46
(dp108
g11
(dp109
g13
I0
sg14
I0
sg15
I0
ssg16
(dp110
g13
I0
sg14
I0
sg15
I0
ssg18
(dp111
g13
I0
sg14
I0
sg15
I0
ssg20
(dp112
g13
I0
sg14
I0
sg15
I0
sssg52
(dp113
g11
(dp114
g13
I0
sg14
I0
sg15
I0
ssg16
(dp115
g13
g2
(g75
S'\xe9\xa2\x8b.\xbat\xb1@'
tRp116
sg14
F0
sg15
g2
(g75
S'\xe9\xa2\x8b.\xbat\xb1@'
tRp117
ssg18
(dp118
g13
g2
(g75
S'F\x17]t\xeb\xe2&A'
tRp119
sg14
F0
sg15
g2
(g75
S'F\x17]t\xeb\xe2&A'
tRp120
ssg20
(dp121
g13
g2
(g75
S'\xab\xaa\xaa\xaa\xb6e\x18A'
tRp122
sg14
F0
sg15
g2
(g75
S'VUUU\xb2e\x18A'
tRp123
sssg58
(dp124
g11
(dp125
g13
I0
sg14
I0
sg15
I0
ssg16
(dp126
g13
I0
sg14
I0
sg15
I0
ssg18
(dp127
g13
I0
sg14
I0
sg15
I0
ssg20
(dp128
g13
I0
sg14
I0
sg15
I0
ssssS'VA'
p129
(dp130
g9
(dp131
g11
(dp132
g13
I0
sg14
I0
sg15
I0
ssg16
(dp133
g13
I0
sg14
I0
sg15
I0
ssg18
(dp134
g13
I0
sg14
I0
sg15
I0
ssg20
(dp135
g13
I0
sg14
I0
sg15
I0
sssg22
(dp136
g11
(dp137
g13
I0
sg14
I0
sg15
I0
ssg16
(dp138
g13
I0
sg14
I0
sg15
I0
ssg18
(dp139
g13
I0
sg14
I0
sg15
I0
ssg20
(dp140
g13
I0
sg14
I0
sg15
I0
sssg28
(dp141
g11
(dp142
g13
I0
sg14
I0
sg15
I0
ssg16
(dp143
g13
I0
sg14
I0
sg15
I0
ssg18
(dp144
g13
I0
sg14
I0
sg15
I0
ssg20
(dp145
g13
I0
sg14
I0
sg15
I0
sssg34
(dp146
g11
(dp147
g13
I0
sg14
I0
sg15
I0
ssg16
(dp148
g13
I0
sg14
I0
sg15
I0
ssg18
(dp149
g13
I0
sg14
I0
sg15
I0
ssg20
(dp150
g13
I0
sg14
I0
sg15
I0
sssg40
(dp151
g11
(dp152
g13
I0
sg14
I0
sg15
I0
ssg16
(dp153
g13
I0
sg14
I0
sg15
I0
ssg18
(dp154
g13
I0
sg14
I0
sg15
I0
ssg20
(dp155
g13
I0
sg14
I0
sg15
I0
sssg46
(dp156
g11
(dp157
g13
I0
sg14
I0
sg15
I0
ssg16
(dp158
g13
I0
sg14
I0
sg15
I0
ssg18
(dp159
g13
I0
sg14
I0
sg15
I0
ssg20
(dp160
g13
I0
sg14
I0
sg15
I0
sssg52
(dp161
g11
(dp162
g13
I0
sg14
I0
sg15
I0
ssg16
(dp163
g13
I0
sg14
I0
sg15
I0
ssg18
(dp164
g13
I0
sg14
I0
sg15
I0
ssg20
(dp165
g13
I0
sg14
I0
sg15
I0
sssg58
(dp166
g11
(dp167
g13
I0
sg14
I0
sg15
I0
ssg16
(dp168
g13
I0
sg14
I0
sg15
I0
ssg18
(dp169
g13
I0
sg14
I0
sg15
I0
ssg20
(dp170
g13
I0
sg14
I0
sg15
I0
ssssS'All Plans'
p171
(dp172
g9
(dp173
g11
(dp174
g13
I0
sg14
I0
sg15
I0
ssg16
(dp175
g13
g2
(g75
S'\x00\x00\x00\x00\x00\x00\x00\x00'
tRp176
sg14
I0
sg15
g2
(g75
S'\x00\x00\x00\x00\x00\x00\x00\x00'
tRp177
ssg18
(dp178
g13
g2
(g75
S'\x00\x00\x00\x00\x00\x00\x00\x00'
tRp179
sg14
I0
sg15
g2
(g75
S'\x00\x00\x00\x00\x00\x00\x00\x00'
tRp180
ssg20
(dp181
g13
g2
(g75
S'\x00\x00\x00\x00\x00\x00\x00\x00'
tRp182
sg14
I0
sg15
g2
(g75
S'\x00\x00\x00\x00\x00\x00\x00\x00'
tRp183
sssg22
(dp184
g11
(dp185
g13
I0
sg14
I0
sg15
I0
ssg16
(dp186
g13
I0
sg14
I0
sg15
I0
ssg18
(dp187
g13
g2
(g75
S'\x00\x00\x00\x00\x04d\tA'
tRp188
sg14
F0
sg15
g2
(g75
S'\x00\x00\x00\x00\xfec\tA'
tRp189
ssg20
(dp190
g13
I0
sg14
I0
sg15
I0
sssg28
(dp191
g11
(dp192
g13
I0
sg14
I0
sg15
I0
ssg16
(dp193
g13
I0
sg14
I0
sg15
I0
ssg18
(dp194
g13
I0
sg14
I0
sg15
I0
ssg20
(dp195
g13
g2
(g75
S'\x8c!\xear\xf3\xe5\xa4A'
tRp196
sg14
F0
sg15
g2
(g75
S'\xbe\xfcK\xf8\xc8\xfe\xa1A'
tRp197
sssg34
(dp198
g11
(dp199
g13
g2
(g75
S'$I\x92\xa4\xe5q2A'
tRp200
sg14
F27.14726239297682
sg15
g2
(g75
S'\x93$I\xd2\x1051A'
tRp201
ssg16
(dp202
g13
g2
(g75
S'\xf1\xc1\x07/\x1f3^A'
tRp203
sg14
F114.80765953682345
sg15
g2
(g75
S'\x0b\xd4\xfa5\xd3\x06[A'
tRp204
ssg18
(dp205
g13
g2
(g75
S'\xd3\x1a\xad\x83\xb1\x0f\x80A'
tRp206
sg14
F734.40069060190399
sg15
g2
(g75
S'i\xe3\xaa\xe9\x1b9|A'
tRp207
ssg20
(dp208
g13
g2
(g75
S'\xc1\xcf\xe4pFz\x8fA'
tRp209
sg14
F1090.5776152485307
sg15
g2
(g75
S'\x83\x02n\xc6\xedE\x8bA'
tRp210
sssg40
(dp211
g11
(dp212
g13
g2
(g75
S'\xa0\xf4I\x1bsNwA'
tRp213
sg14
F80.182807496061642
sg15
g2
(g75
S'n\xdb\xb6Y\x0f\xf7uA'
tRp214
ssg16
(dp215
g13
g2
(g75
S'\xb1\x1f\xfb\xd18gAA'
tRp216
sg14
F237.22672700644878
sg15
g2
(g75
S'\xbd\xe2+>\x7fEAA'
tRp217
ssg18
(dp218
g13
g2
(g75
S'\x85E\xfb\x1dIM}A'
tRp219
sg14
F1370.1060223010049
sg15
g2
(g75
S'i~\x89\x1d\xe3xyA'
tRp220
ssg20
(dp221
g13
g2
(g75
S'E\x1bWe\xfa+\x83A'
tRp222
sg14
F1155.682846296791
sg15
g2
(g75
S'?\xcdv\x12!!\x82A'
tRp223
sssg46
(dp224
g11
(dp225
g13
g2
(g75
S'\x00\x00\x00\x00\x80\x07\xbf@'
tRp226
sg14
F0
sg15
g2
(g75
S'\x00\x00\x00\x00\x80\x07\xbf@'
tRp227
ssg16
(dp228
g13
g2
(g75
S'\x00\x00\x00\x00`M\xee@'
tRp229
sg14
F0
sg15
g2
(g75
S'\x00\x00\x00\x00\xe0Z\xec@'
tRp230
ssg18
(dp231
g13
g2
(g75
S'\xc0R\xa0\xd6\x03_\x19A'
tRp232
sg14
F5.7013586115621475
sg15
g2
(g75
S'\x1a\x03\xa61\x1e\xdc\x16A'
tRp233
ssg20
(dp234
g13
g2
(g75
S'H\xbd\x8e\xd4\xf3:\x08A'
tRp235
sg14
F1.6909090909090909
sg15
g2
(g75
S'\x9e\x12\xe4)\xb5\x1e\x06A'
tRp236
sssg52
(dp237
g11
(dp238
g13
g2
(g75
S'UUUUUo\x8b@'
tRp239
sg14
F0
sg15
g2
(g75
S'UUUUUo\x8b@'
tRp240
ssg16
(dp241
g13
g2
(g75
S'\xe0\xc2\xa2\xfd\xbf\xae?A'
tRp242
sg14
F1.25
sg15
g2
(g75
S'6\x18\xf8\xd2\xa95>A'
tRp243
ssg18
(dp244
g13
g2
(g75
S'\x98AH\x1eu\x89iA'
tRp245
sg14
F5.4166666666666661
sg15
g2
(g75
S'0\xc1A\xce\xe8[hA'
tRp246
ssg20
(dp247
g13
g2
(g75
S'\xd1G\x94\x9f\x89%\x88A'
tRp248
sg14
F7.3135202611868637
sg15
g2
(g75
S'\x0c\xfbjLj\x85\x84A'
tRp249
sssg58
(dp250
g11
(dp251
g13
I0
sg14
I0
sg15
I0
ssg16
(dp252
g13
I0
sg14
I0
sg15
I0
ssg18
(dp253
g13
g2
(g75
S'\xcf\xf3<\xcf\xb7x\xf0@'
tRp254
sg14
F0
sg15
g2
(g75
S'\xb0\xf8\x8a\xaf\x80\xef\xef@'
tRp255
ssg20
(dp256
g13
g2
(g75
S'\xab\xaa\xaa\xaa*\xd0\xd0@'
tRp257
sg14
F0
sg15
g2
(g75
S'\xab\xaa\xaa\xaa*\xd0\xd0@'
tRp258
ssssS'Commercial'
p259
(dp260
g9
(dp261
g11
(dp262
g13
I0
sg14
I0
sg15
I0
ssg16
(dp263
g13
I0
sg14
I0
sg15
I0
ssg18
(dp264
g13
I0
sg14
I0
sg15
I0
ssg20
(dp265
g13
I0
sg14
I0
sg15
I0
sssg22
(dp266
g11
(dp267
g13
I0
sg14
I0
sg15
I0
ssg16
(dp268
g13
I0
sg14
I0
sg15
I0
ssg18
(dp269
g13
I0
sg14
I0
sg15
I0
ssg20
(dp270
g13
I0
sg14
I0
sg15
I0
sssg28
(dp271
g11
(dp272
g13
I0
sg14
I0
sg15
I0
ssg16
(dp273
g13
I0
sg14
I0
sg15
I0
ssg18
(dp274
g13
I0
sg14
I0
sg15
I0
ssg20
(dp275
g13
g2
(g75
S'\xaf\xb3\x80;v\x13\xa2A'
tRp276
sg14
F0
sg15
g2
(g75
S'P\x1f\x18qdw\x9eA'
tRp277
sssg34
(dp278
g11
(dp279
g13
g2
(g75
S'UUUU3\x031A'
tRp280
sg14
F15.929063078533064
sg15
g2
(g75
S'VUUU\xe1\xd4/A'
tRp281
ssg16
(dp282
g13
g2
(g75
S'\xab\xaa\xaa\x8a\xed\xc3\\A'
tRp283
sg14
F66.390992870156779
sg15
g2
(g75
S'\xe2\x83\x0f.G\xb5YA'
tRp284
ssg18
(dp285
g13
g2
(g75
S'\x9b\x99\x99U\x049zA'
tRp286
sg14
F168.91922152720213
sg15
g2
(g75
S'S\x91\x89\xe0\x8bwvA'
tRp287
ssg20
(dp288
g13
g2
(g75
S'h\x0e\x15\xd9\xc5\xb7\x87A'
tRp289
sg14
F300.55365098781073
sg15
g2
(g75
S'}o\x83n\x80\xbe\x83A'
tRp290
sssg40
(dp291
g11
(dp292
g13
g2
(g75
S'\xc2\x16l\xf1<XvA'
tRp293
sg14
F70.611378924633073
sg15
g2
(g75
S'l\xc1\x16\xdc\xed\x00uA'
tRp294
ssg16
(dp295
g13
g2
(g75
S'$I\x92$\xa9N\x12A'
tRp296
sg14
F11.215993788819874
sg15
g2
(g75
S'\xdb\xb6m\xdb\xa2J\x11A'
tRp297
ssg18
(dp298
g13
g2
(g75
S'\x03A\x10:\x04\x88yA'
tRp299
sg14
F269.54923206471619
sg15
g2
(g75
S'{\xb8\x87\xf5\xbb\xdcuA'
tRp300
ssg20
(dp301
g13
g2
(g75
S'\x0e\xc30`0\x15xA'
tRp302
sg14
F343.21293635643559
sg15
g2
(g75
S'a\x18\x86\x81ELvA'
tRp303
sssg46
(dp304
g11
(dp305
g13
I0
sg14
I0
sg15
I0
ssg16
(dp306
g13
I0
sg14
I0
sg15
I0
ssg18
(dp307
g13
I0
sg14
I0
sg15
I0
ssg20
(dp308
g13
I0
sg14
I0
sg15
I0
sssg52
(dp309
g11
(dp310
g13
I0
sg14
I0
sg15
I0
ssg16
(dp311
g13
g2
(g75
S'\x00\x00\x00\x00@0\x12A'
tRp312
sg14
F0
sg15
g2
(g75
S'VUUU\xab\x12\x12A'
tRp313
ssg18
(dp314
g13
g2
(g75
S'VUU\xc5\x03FUA'
tRp315
sg14
F0
sg15
g2
(g75
S'\xaa\xaa\xaa\nI\xb5SA'
tRp316
ssg20
(dp317
g13
g2
(g75
S'\xc30\x0cW\xf8\xab\x80A'
tRp318
sg14
F2.8135202611868637
sg15
g2
(g75
S'I\x92$\xf1\x89\x9fzA'
tRp319
sssg58
(dp320
g11
(dp321
g13
I0
sg14
I0
sg15
I0
ssg16
(dp322
g13
I0
sg14
I0
sg15
I0
ssg18
(dp323
g13
I0
sg14
I0
sg15
I0
ssg20
(dp324
g13
I0
sg14
I0
sg15
I0
ssssS'DoD'
p325
(dp326
g9
(dp327
g11
(dp328
g13
I0
sg14
I0
sg15
I0
ssg16
(dp329
g13
I0
sg14
I0
sg15
I0
ssg18
(dp330
g13
I0
sg14
I0
sg15
I0
ssg20
(dp331
g13
I0
sg14
I0
sg15
I0
sssg22
(dp332
g11
(dp333
g13
I0
sg14
I0
sg15
I0
ssg16
(dp334
g13
I0
sg14
I0
sg15
I0
ssg18
(dp335
g13
I0
sg14
I0
sg15
I0
ssg20
(dp336
g13
I0
sg14
I0
sg15
I0
sssg28
(dp337
g11
(dp338
g13
I0
sg14
I0
sg15
I0
ssg16
(dp339
g13
I0
sg14
I0
sg15
I0
ssg18
(dp340
g13
I0
sg14
I0
sg15
I0
ssg20
(dp341
g13
I0
sg14
I0
sg15
I0
sssg34
(dp342
g11
(dp343
g13
I0
sg14
I0
sg15
I0
ssg16
(dp344
g13
I0
sg14
I0
sg15
I0
ssg18
(dp345
g13
I0
sg14
I0
sg15
I0
ssg20
(dp346
g13
I0
sg14
I0
sg15
I0
sssg40
(dp347
g11
(dp348
g13
I0
sg14
I0
sg15
I0
ssg16
(dp349
g13
I0
sg14
I0
sg15
I0
ssg18
(dp350
g13
I0
sg14
I0
sg15
I0
ssg20
(dp351
g13
I0
sg14
I0
sg15
I0
sssg46
(dp352
g11
(dp353
g13
I0
sg14
I0
sg15
I0
ssg16
(dp354
g13
I0
sg14
I0
sg15
I0
ssg18
(dp355
g13
I0
sg14
I0
sg15
I0
ssg20
(dp356
g13
I0
sg14
I0
sg15
I0
sssg52
(dp357
g11
(dp358
g13
I0
sg14
I0
sg15
I0
ssg16
(dp359
g13
I0
sg14
I0
sg15
I0
ssg18
(dp360
g13
I0
sg14
I0
sg15
I0
ssg20
(dp361
g13
I0
sg14
I0
sg15
I0
sssg58
(dp362
g11
(dp363
g13
I0
sg14
I0
sg15
I0
ssg16
(dp364
g13
I0
sg14
I0
sg15
I0
ssg18
(dp365
g13
I0
sg14
I0
sg15
I0
ssg20
(dp366
g13
I0
sg14
I0
sg15
I0
ssssS'Medicare'
p367
(dp368
g9
(dp369
g11
(dp370
g13
I0
sg14
I0
sg15
I0
ssg16
(dp371
g13
I0
sg14
I0
sg15
I0
ssg18
(dp372
g13
I0
sg14
I0
sg15
I0
ssg20
(dp373
g13
I0
sg14
I0
sg15
I0
sssg22
(dp374
g11
(dp375
g13
I0
sg14
I0
sg15
I0
ssg16
(dp376
g13
I0
sg14
I0
sg15
I0
ssg18
(dp377
g13
I0
sg14
I0
sg15
I0
ssg20
(dp378
g13
I0
sg14
I0
sg15
I0
sssg28
(dp379
g11
(dp380
g13
I0
sg14
I0
sg15
I0
ssg16
(dp381
g13
I0
sg14
I0
sg15
I0
ssg18
(dp382
g13
I0
sg14
I0
sg15
I0
ssg20
(dp383
g13
I0
sg14
I0
sg15
I0
sssg34
(dp384
g11
(dp385
g13
g2
(g75
S'\xf4<\xcf\xf3$\xeb\xf6@'
tRp386
sg14
F11.218199314443757
sg15
g2
(g75
S'z\x9e\xe7y\x02\xaa\xf4@'
tRp387
ssg16
(dp388
g13
g2
(g75
S'\xebW\n\xd4}\x1a\x10A'
tRp389
sg14
F21.75
sg15
g2
(g75
S'H\xcc\xdb\x19H\x80\x0cA'
tRp390
ssg18
(dp391
g13
g2
(g75
S'+I\x92dN\xc8?A'
tRp392
sg14
F560.74108887338946
sg15
g2
(g75
S'\xfap\x0fw\x90\xc3=A'
tRp393
ssg20
(dp394
g13
g2
(g75
S'8-\xbc- \x92cA'
tRp395
sg14
F773.21551351360461
sg15
g2
(g75
S'M\x7f\xdd6t\xd0bA'
tRp396
sssg40
(dp397
g11
(dp398
g13
g2
(g75
S'\xcb\xcc\xcc\xcc\xe0F\xf3@'
tRp399
sg14
F8.5714285714285712
sg15
g2
(g75
S'\xe9\xa0\x0e\xea\x942\xf3@'
tRp400
ssg16
(dp401
g13
g2
(g75
S'\x19\xad\xd1Z\xc7:>A'
tRp402
sg14
F226.01073321762891
sg15
g2
(g75
S'\xc4W|\xc5U8>A'
tRp403
ssg18
(dp404
g13
g2
(g75
S'\x91Q0b\n\xd8KA'
tRp405
sg14
F1100.5567902362886
sg15
g2
(g75
S'\x86\x9b\xcf\x16[\x99JA'
tRp406
ssg20
(dp407
g13
g2
(g75
S'5\xb6\xee9\xcb_jA'
tRp408
sg14
F812.05324327368874
sg15
g2
(g75
S'\n\xf8\x0bF\x81\xc7iA'
tRp409
sssg46
(dp410
g11
(dp411
g13
g2
(g75
S'\x00\x00\x00\x00\x80\x07\xbf@'
tRp412
sg14
F0
sg15
g2
(g75
S'\x00\x00\x00\x00\x80\x07\xbf@'
tRp413
ssg16
(dp414
g13
g2
(g75
S'\x00\x00\x00\x00`M\xee@'
tRp415
sg14
F0
sg15
g2
(g75
S'\x00\x00\x00\x00\xe0Z\xec@'
tRp416
ssg18
(dp417
g13
g2
(g75
S'\xc0R\xa0\xd6\x03_\x19A'
tRp418
sg14
F5.7013586115621475
sg15
g2
(g75
S'\x1a\x03\xa61\x1e\xdc\x16A'
tRp419
ssg20
(dp420
g13
g2
(g75
S'H\xbd\x8e\xd4\xf3:\x08A'
tRp421
sg14
F1.6909090909090909
sg15
g2
(g75
S'\x9e\x12\xe4)\xb5\x1e\x06A'
tRp422
sssg52
(dp423
g11
(dp424
g13
g2
(g75
S'UUUUUo\x8b@'
tRp425
sg14
F0
sg15
g2
(g75
S'UUUUUo\x8b@'
tRp426
ssg16
(dp427
g13
g2
(g75
S'=7tC;\x11;A'
tRp428
sg14
F1.25
sg15
g2
(g75
S'>7tC\x8a\x9f9A'
tRp429
ssg18
(dp430
g13
g2
(g75
S'\xf0\x8a\xaf\x08\x89\xf0ZA'
tRp431
sg14
F5.4166666666666661
sg15
g2
(g75
S'\xcd4M#+&ZA'
tRp432
ssg20
(dp433
g13
g2
(g75
S'\xe5\x06\xcbl\x17#mA'
tRp434
sg14
F4.5
sg15
g2
(g75
S'\xf6\x1c\xb8\xbcg\x13lA'
tRp435
sssg58
(dp436
g11
(dp437
g13
I0
sg14
I0
sg15
I0
ssg16
(dp438
g13
I0
sg14
I0
sg15
I0
ssg18
(dp439
g13
g2
(g75
S'\xcf\xf3<\xcf\xb7x\xf0@'
tRp440
sg14
F0
sg15
g2
(g75
S'\xb0\xf8\x8a\xaf\x80\xef\xef@'
tRp441
ssg20
(dp442
g13
g2
(g75
S'\xab\xaa\xaa\xaa*\xd0\xd0@'
tRp443
sg14
F0
sg15
g2
(g75
S'\xab\xaa\xaa\xaa*\xd0\xd0@'
tRp444
ssssS'State Medicaid'
p445
(dp446
g9
(dp447
g11
(dp448
g13
I0
sg14
I0
sg15
I0
ssg16
(dp449
g13
g2
(g75
S'\x00\x00\x00\x00\x00\x00\x00\x00'
tRp450
sg14
I0
sg15
g2
(g75
S'\x00\x00\x00\x00\x00\x00\x00\x00'
tRp451
ssg18
(dp452
g13
g2
(g75
S'\x00\x00\x00\x00\x00\x00\x00\x00'
tRp453
sg14
I0
sg15
g2
(g75
S'\x00\x00\x00\x00\x00\x00\x00\x00'
tRp454
ssg20
(dp455
g13
g2
(g75
S'\x00\x00\x00\x00\x00\x00\x00\x00'
tRp456
sg14
I0
sg15
g2
(g75
S'\x00\x00\x00\x00\x00\x00\x00\x00'
tRp457
sssg22
(dp458
g11
(dp459
g13
I0
sg14
I0
sg15
I0
ssg16
(dp460
g13
I0
sg14
I0
sg15
I0
ssg18
(dp461
g13
I0
sg14
I0
sg15
I0
ssg20
(dp462
g13
I0
sg14
I0
sg15
I0
sssg28
(dp463
g11
(dp464
g13
I0
sg14
I0
sg15
I0
ssg16
(dp465
g13
I0
sg14
I0
sg15
I0
ssg18
(dp466
g13
I0
sg14
I0
sg15
I0
ssg20
(dp467
g13
g2
(g75
S'\x00\x00\x00\x00\x00\x00\x00\x00'
tRp468
sg14
I0
sg15
g2
(g75
S'\x00\x00\x00\x00\x00\x00\x00\x00'
tRp469
sssg34
(dp470
g11
(dp471
g13
I0
sg14
I0
sg15
I0
ssg16
(dp472
g13
I0
sg14
I0
sg15
I0
ssg18
(dp473
g13
I0
sg14
I0
sg15
I0
ssg20
(dp474
g13
I0
sg14
I0
sg15
I0
sssg40
(dp475
g11
(dp476
g13
I0
sg14
I0
sg15
I0
ssg16
(dp477
g13
I0
sg14
I0
sg15
I0
ssg18
(dp478
g13
I0
sg14
I0
sg15
I0
ssg20
(dp479
g13
I0
sg14
I0
sg15
I0
sssg46
(dp480
g11
(dp481
g13
I0
sg14
I0
sg15
I0
ssg16
(dp482
g13
I0
sg14
I0
sg15
I0
ssg18
(dp483
g13
I0
sg14
I0
sg15
I0
ssg20
(dp484
g13
I0
sg14
I0
sg15
I0
sssg52
(dp485
g11
(dp486
g13
I0
sg14
I0
sg15
I0
ssg16
(dp487
g13
I0
sg14
I0
sg15
I0
ssg18
(dp488
g13
I0
sg14
I0
sg15
I0
ssg20
(dp489
g13
I0
sg14
I0
sg15
I0
sssg58
(dp490
g11
(dp491
g13
I0
sg14
I0
sg15
I0
ssg16
(dp492
g13
I0
sg14
I0
sg15
I0
ssg18
(dp493
g13
I0
sg14
I0
sg15
I0
ssg20
(dp494
g13
I0
sg14
I0
sg15
I0
ssssS'PBM Commercial'
p495
(dp496
g9
(dp497
g11
(dp498
g13
I0
sg14
I0
sg15
I0
ssg16
(dp499
g13
I0
sg14
I0
sg15
I0
ssg18
(dp500
g13
I0
sg14
I0
sg15
I0
ssg20
(dp501
g13
I0
sg14
I0
sg15
I0
sssg22
(dp502
g11
(dp503
g13
I0
sg14
I0
sg15
I0
ssg16
(dp504
g13
I0
sg14
I0
sg15
I0
ssg18
(dp505
g13
I0
sg14
I0
sg15
I0
ssg20
(dp506
g13
I0
sg14
I0
sg15
I0
sssg28
(dp507
g11
(dp508
g13
I0
sg14
I0
sg15
I0
ssg16
(dp509
g13
I0
sg14
I0
sg15
I0
ssg18
(dp510
g13
I0
sg14
I0
sg15
I0
ssg20
(dp511
g13
g2
(g75
S'\x00\x00\x00\x00\x00\x00\x00\x00'
tRp512
sg14
I0
sg15
g2
(g75
S'\x00\x00\x00\x00\x00\x00\x00\x00'
tRp513
sssg34
(dp514
g11
(dp515
g13
I0
sg14
I0
sg15
I0
ssg16
(dp516
g13
I0
sg14
I0
sg15
I0
ssg18
(dp517
g13
g2
(g75
S'\x00\x00\x00\x00\x00\x00\x00\x00'
tRp518
sg14
I0
sg15
g2
(g75
S'\x00\x00\x00\x00\x00\x00\x00\x00'
tRp519
ssg20
(dp520
g13
g2
(g75
S'\x00\x00\x00\x00\x00\x00\x00\x00'
tRp521
sg14
I0
sg15
g2
(g75
S'\x00\x00\x00\x00\x00\x00\x00\x00'
tRp522
sssg40
(dp523
g11
(dp524
g13
I0
sg14
I0
sg15
I0
ssg16
(dp525
g13
I0
sg14
I0
sg15
I0
ssg18
(dp526
g13
g2
(g75
S'\x00\x00\x00\x00\x00\x00\x00\x00'
tRp527
sg14
I0
sg15
g2
(g75
S'\x00\x00\x00\x00\x00\x00\x00\x00'
tRp528
ssg20
(dp529
g13
g2
(g75
S'\x00\x00\x00\x00\x00\x00\x00\x00'
tRp530
sg14
I0
sg15
g2
(g75
S'\x00\x00\x00\x00\x00\x00\x00\x00'
tRp531
sssg46
(dp532
g11
(dp533
g13
I0
sg14
I0
sg15
I0
ssg16
(dp534
g13
I0
sg14
I0
sg15
I0
ssg18
(dp535
g13
I0
sg14
I0
sg15
I0
ssg20
(dp536
g13
I0
sg14
I0
sg15
I0
sssg52
(dp537
g11
(dp538
g13
I0
sg14
I0
sg15
I0
ssg16
(dp539
g13
I0
sg14
I0
sg15
I0
ssg18
(dp540
g13
I0
sg14
I0
sg15
I0
ssg20
(dp541
g13
g2
(g75
S'\x00\x00\x00\x00\x00\x00\x00\x00'
tRp542
sg14
I0
sg15
g2
(g75
S'\x00\x00\x00\x00\x00\x00\x00\x00'
tRp543
sssg58
(dp544
g11
(dp545
g13
I0
sg14
I0
sg15
I0
ssg16
(dp546
g13
I0
sg14
I0
sg15
I0
ssg18
(dp547
g13
I0
sg14
I0
sg15
I0
ssg20
(dp548
g13
I0
sg14
I0
sg15
I0
sssssg2
(g4
S'\xd7\x07\x00\x00\x00\x00\x00\x00'
tRp549
(dp550
g7
(dp551
g9
(dp552
g11
(dp553
g13
I0
sg14
I0
sg15
I0
ssg16
(dp554
g13
I0
sg14
I0
sg15
I0
ssg18
(dp555
g13
I0
sg14
I0
sg15
I0
ssg20
(dp556
g13
I0
sg14
I0
sg15
I0
sssg22
(dp557
g11
(dp558
g13
I0
sg14
I0
sg15
I0
ssg16
(dp559
g13
I0
sg14
I0
sg15
I0
ssg18
(dp560
g13
I0
sg14
I0
sg15
I0
ssg20
(dp561
g13
I0
sg14
I0
sg15
I0
sssg28
(dp562
g11
(dp563
g13
I0
sg14
I0
sg15
I0
ssg16
(dp564
g13
I0
sg14
I0
sg15
I0
ssg18
(dp565
g13
I0
sg14
I0
sg15
I0
ssg20
(dp566
g13
I0
sg14
I0
sg15
I0
sssg34
(dp567
g11
(dp568
g13
I0
sg14
I0
sg15
I0
ssg16
(dp569
g13
I0
sg14
I0
sg15
I0
ssg18
(dp570
g13
I0
sg14
I0
sg15
I0
ssg20
(dp571
g13
I0
sg14
I0
sg15
I0
sssg40
(dp572
g11
(dp573
g13
I0
sg14
I0
sg15
I0
ssg16
(dp574
g13
I0
sg14
I0
sg15
I0
ssg18
(dp575
g13
I0
sg14
I0
sg15
I0
ssg20
(dp576
g13
I0
sg14
I0
sg15
I0
sssg46
(dp577
g11
(dp578
g13
I0
sg14
I0
sg15
I0
ssg16
(dp579
g13
I0
sg14
I0
sg15
I0
ssg18
(dp580
g13
I0
sg14
I0
sg15
I0
ssg20
(dp581
g13
I0
sg14
I0
sg15
I0
sssg52
(dp582
g11
(dp583
g13
I0
sg14
I0
sg15
I0
ssg16
(dp584
g13
I0
sg14
I0
sg15
I0
ssg18
(dp585
g13
I0
sg14
I0
sg15
I0
ssg20
(dp586
g13
I0
sg14
I0
sg15
I0
sssg58
(dp587
g11
(dp588
g13
I0
sg14
I0
sg15
I0
ssg16
(dp589
g13
I0
sg14
I0
sg15
I0
ssg18
(dp590
g13
I0
sg14
I0
sg15
I0
ssg20
(dp591
g13
I0
sg14
I0
sg15
I0
ssssg64
(dp592
g9
(dp593
g11
(dp594
g13
I0
sg14
I0
sg15
I0
ssg16
(dp595
g13
I0
sg14
I0
sg15
I0
ssg18
(dp596
g13
I0
sg14
I0
sg15
I0
ssg20
(dp597
g13
I0
sg14
I0
sg15
I0
sssg22
(dp598
g11
(dp599
g13
I0
sg14
I0
sg15
I0
ssg16
(dp600
g13
I0
sg14
I0
sg15
I0
ssg18
(dp601
g13
I0
sg14
I0
sg15
I0
ssg20
(dp602
g13
I0
sg14
I0
sg15
I0
sssg28
(dp603
g11
(dp604
g13
I0
sg14
I0
sg15
I0
ssg16
(dp605
g13
I0
sg14
I0
sg15
I0
ssg18
(dp606
g13
I0
sg14
I0
sg15
I0
ssg20
(dp607
g13
g2
(g75
S'"\x94\x13)\xc4DtA'
tRp608
sg14
F0
sg15
g2
(g75
S'B\x8f\xc5<\xca/tA'
tRp609
sssg34
(dp610
g11
(dp611
g13
g2
(g75
S'VUU\xb5}\x16@A'
tRp612
sg14
F0
sg15
g2
(g75
S'\xab\xaa\xaaj\xc2\x1a?A'
tRp613
ssg16
(dp614
g13
g2
(g75
S'VUUU\xa5\x9a\x13A'
tRp615
sg14
F0
sg15
g2
(g75
S'VUUU\xa5\x9a\x13A'
tRp616
ssg18
(dp617
g13
g2
(g75
S'DDDt\x81\x80YA'
tRp618
sg14
F3.835944980548712
sg15
g2
(g75
S'\xdb\x8f\xfdhnrYA'
tRp619
ssg20
(dp620
g13
g2
(g75
S'\x04N\xe0\xa4\xfa2`A'
tRp621
sg14
F2.5932208607851366
sg15
g2
(g75
S"\x06N\xe0\xa4\x90'`A"
tRp622
sssg40
(dp623
g11
(dp624
g13
g2
(g75
S'\xaa\xaa\xaa*/\xa80A'
tRp625
sg14
F0
sg15
g2
(g75
S'\xaa\xaa\xaa\xaa(\xa80A'
tRp626
ssg16
(dp627
g13
g2
(g75
S'\x00\x00\x00\x00\x80f\xd2@'
tRp628
sg14
F0
sg15
g2
(g75
S'\x00\x00\x00\x00\x80f\xd2@'
tRp629
ssg18
(dp630
g13
g2
(g75
S'\x84:\xa8\xc3\x1cCAA'
tRp631
sg14
F0
sg15
g2
(g75
S'\x84:\xa8\xc3Ih@A'
tRp632
ssg20
(dp633
g13
g2
(g75
S'\x94M6\xd9Eo\x15A'
tRp634
sg14
F5.0657075376508338
sg15
g2
(g75
S'\x94M6\xd9q\x16\x15A'
tRp635
sssg46
(dp636
g11
(dp637
g13
I0
sg14
I0
sg15
I0
ssg16
(dp638
g13
I0
sg14
I0
sg15
I0
ssg18
(dp639
g13
I0
sg14
I0
sg15
I0
ssg20
(dp640
g13
I0
sg14
I0
sg15
I0
sssg52
(dp641
g11
(dp642
g13
g2
(g75
S'\x00\x00\x00\x80\xe6E4A'
tRp643
sg14
F0
sg15
g2
(g75
S'\x00\x00\x00\x80\xfa;4A'
tRp644
ssg16
(dp645
g13
g2
(g75
S'\x00\x00\x00\x00@\xa4\xb5@'
tRp646
sg14
F0
sg15
g2
(g75
S'\x00\x00\x00\x00@\xa4\xb5@'
tRp647
ssg18
(dp648
g13
g2
(g75
S'\x08\x1f|\xf0\xc1G\xd8@'
tRp649
sg14
F0.062518701085311532
sg15
g2
(g75
S'\x08\x1f|\xf0AG\xd8@'
tRp650
ssg20
(dp651
g13
g2
(g75
S'r\x1c\xc7qx\xd1 A'
tRp652
sg14
F0
sg15
g2
(g75
S'\x1c\xc7q\x1c\xf9\xa4 A'
tRp653
sssg58
(dp654
g11
(dp655
g13
I0
sg14
I0
sg15
I0
ssg16
(dp656
g13
I0
sg14
I0
sg15
I0
ssg18
(dp657
g13
I0
sg14
I0
sg15
I0
ssg20
(dp658
g13
I0
sg14
I0
sg15
I0
ssssg129
(dp659
g9
(dp660
g11
(dp661
g13
I0
sg14
I0
sg15
I0
ssg16
(dp662
g13
I0
sg14
I0
sg15
I0
ssg18
(dp663
g13
I0
sg14
I0
sg15
I0
ssg20
(dp664
g13
I0
sg14
I0
sg15
I0
sssg22
(dp665
g11
(dp666
g13
I0
sg14
I0
sg15
I0
ssg16
(dp667
g13
I0
sg14
I0
sg15
I0
ssg18
(dp668
g13
I0
sg14
I0
sg15
I0
ssg20
(dp669
g13
I0
sg14
I0
sg15
I0
sssg28
(dp670
g11
(dp671
g13
I0
sg14
I0
sg15
I0
ssg16
(dp672
g13
I0
sg14
I0
sg15
I0
ssg18
(dp673
g13
I0
sg14
I0
sg15
I0
ssg20
(dp674
g13
I0
sg14
I0
sg15
I0
sssg34
(dp675
g11
(dp676
g13
I0
sg14
I0
sg15
I0
ssg16
(dp677
g13
I0
sg14
I0
sg15
I0
ssg18
(dp678
g13
I0
sg14
I0
sg15
I0
ssg20
(dp679
g13
I0
sg14
I0
sg15
I0
sssg40
(dp680
g11
(dp681
g13
I0
sg14
I0
sg15
I0
ssg16
(dp682
g13
I0
sg14
I0
sg15
I0
ssg18
(dp683
g13
I0
sg14
I0
sg15
I0
ssg20
(dp684
g13
I0
sg14
I0
sg15
I0
sssg46
(dp685
g11
(dp686
g13
I0
sg14
I0
sg15
I0
ssg16
(dp687
g13
I0
sg14
I0
sg15
I0
ssg18
(dp688
g13
I0
sg14
I0
sg15
I0
ssg20
(dp689
g13
I0
sg14
I0
sg15
I0
sssg52
(dp690
g11
(dp691
g13
I0
sg14
I0
sg15
I0
ssg16
(dp692
g13
I0
sg14
I0
sg15
I0
ssg18
(dp693
g13
I0
sg14
I0
sg15
I0
ssg20
(dp694
g13
I0
sg14
I0
sg15
I0
sssg58
(dp695
g11
(dp696
g13
I0
sg14
I0
sg15
I0
ssg16
(dp697
g13
I0
sg14
I0
sg15
I0
ssg18
(dp698
g13
I0
sg14
I0
sg15
I0
ssg20
(dp699
g13
I0
sg14
I0
sg15
I0
ssssg171
(dp700
g9
(dp701
g11
(dp702
g13
I0
sg14
I0
sg15
I0
ssg16
(dp703
g13
g2
(g75
S'ffff\x86r5A'
tRp704
sg14
F0
sg15
g2
(g75
S'\xcd\xcc\xcc\xcc\xfa\xf6,A'
tRp705
ssg18
(dp706
g13
g2
(g75
S'\x00\x00\x00\x00\xa5\x8c5A'
tRp707
sg14
F0
sg15
g2
(g75
S'\x00\x00\x00\x00\xc0%-A'
tRp708
ssg20
(dp709
g13
g2
(g75
S'\xaa\xaa\xaa\xcar#XA'
tRp710
sg14
F0
sg15
g2
(g75
S'\x00\x00\x00\xe0\xb1\xaeQA'
tRp711
sssg22
(dp712
g11
(dp713
g13
I0
sg14
I0
sg15
I0
ssg16
(dp714
g13
I0
sg14
I0
sg15
I0
ssg18
(dp715
g13
I0
sg14
I0
sg15
I0
ssg20
(dp716
g13
I0
sg14
I0
sg15
I0
sssg28
(dp717
g11
(dp718
g13
I0
sg14
I0
sg15
I0
ssg16
(dp719
g13
I0
sg14
I0
sg15
I0
ssg18
(dp720
g13
I0
sg14
I0
sg15
I0
ssg20
(dp721
g13
g2
(g75
S'Wb%-V\xff\xa0A'
tRp722
sg14
F0
sg15
g2
(g75
S'|\xab\xb7\xfe\xd9\x0f\x9dA'
tRp723
sssg34
(dp724
g11
(dp725
g13
g2
(g75
S'\xaa\xaa\xaaV\xbb\x9e\x80A'
tRp726
sg14
F328.78388280384559
sg15
g2
(g75
S'UUUa\x0e\xdf\x7fA'
tRp727
ssg16
(dp728
g13
g2
(g75
S'\xab\xaa\xaa\xaa\xaa\x0bBA'
tRp729
sg14
F51.723804363009798
sg15
g2
(g75
S'\xab\xaa\xaaj\xbe<AA'
tRp730
ssg18
(dp731
g13
g2
(g75
S'\x89\x95X}z\x8d\x8dA'
tRp732
sg14
F358.95725766967456
sg15
g2
(g75
S'\xbcX\x17\xfc\xc9\xbe\x87A'
tRp733
ssg20
(dp734
g13
g2
(g75
S'\xec\xe5\xd8\x0cK:\xa0A'
tRp735
sg14
F996.00732667447187
sg15
g2
(g75
S'\x92\xc1$\x1fc\x03\x9bA'
tRp736
sssg40
(dp737
g11
(dp738
g13
g2
(g75
S'\x9e\xe7yN\x9f\x92eA'
tRp739
sg14
F53.047556031445943
sg15
g2
(g75
S'\x92$I\xa2\x01\x96dA'
tRp740
ssg16
(dp741
g13
g2
(g75
S'UUUUm%\x0cA'
tRp742
sg14
F10
sg15
g2
(g75
S'UUUU\xe5f\x02A'
tRp743
ssg18
(dp744
g13
g2
(g75
S'\xe7l\xce\x9a\x03A\x89A'
tRp745
sg14
F2146.7668433025706
sg15
g2
(g75
S'\xe5l\xce\x97\xd1\xe9\x87A'
tRp746
ssg20
(dp747
g13
g2
(g75
S'\x9a\xd1\xd39U\x8f{A'
tRp748
sg14
F369.55499060573891
sg15
g2
(g75
S't\xd1EO\xc5\xc3yA'
tRp749
sssg46
(dp750
g11
(dp751
g13
I0
sg14
I0
sg15
I0
ssg16
(dp752
g13
g2
(g75
S'\x00\x00\x00\x00\x80n\xbe@'
tRp753
sg14
F0
sg15
g2
(g75
S'\x00\x00\x00\x00\x80n\xbe@'
tRp754
ssg18
(dp755
g13
g2
(g75
S'\x00\x00\x00\x00\xe8X\xe0@'
tRp756
sg14
F0
sg15
g2
(g75
S'\x00\x00\x00\x00\xe8X\xe0@'
tRp757
ssg20
(dp758
g13
g2
(g75
S'\xbb\xae\xeb\xba\xceQ\xcf@'
tRp759
sg14
F0
sg15
g2
(g75
S'eY\x96e9\xc9\xcc@'
tRp760
sssg52
(dp761
g11
(dp762
g13
g2
(g75
S'\x00\x00\x00(\xe5\xcfiA'
tRp763
sg14
F0
sg15
g2
(g75
S'\x1c\xc7qT\xd5:hA'
tRp764
ssg16
(dp765
g13
g2
(g75
S'i3\x08\x19\x1bDLA'
tRp766
sg14
F0
sg15
g2
(g75
S'%\xfc\x93U\xd1\xe1IA'
tRp767
ssg18
(dp768
g13
g2
(g75
S'4^\x9d\xa0\x83cvA'
tRp769
sg14
F0.13147403634565547
sg15
g2
(g75
S'\xb7\x89\xf8^\xc2\x04tA'
tRp770
ssg20
(dp771
g13
g2
(g75
S'\xeb\xcd\xf5H\x1b\xd9\x8bA'
tRp772
sg14
F20
sg15
g2
(g75
S'\xf1O\x16\x02\xe3[\x87A'
tRp773
sssg58
(dp774
g11
(dp775
g13
I0
sg14
I0
sg15
I0
ssg16
(dp776
g13
I0
sg14
I0
sg15
I0
ssg18
(dp777
g13
g2
(g75
S'TUUU\x05\xf2\xeb@'
tRp778
sg14
F0
sg15
g2
(g75
S'UUUU\x95P\xeb@'
tRp779
ssg20
(dp780
g13
g2
(g75
S'\x1c\xc7q\x1c\xa7\xe5\xde@'
tRp781
sg14
F0
sg15
g2
(g75
S'\xaa\xaa\xaa\xaaJ\xe5\xde@'
tRp782
ssssg259
(dp783
g9
(dp784
g11
(dp785
g13
I0
sg14
I0
sg15
I0
ssg16
(dp786
g13
I0
sg14
I0
sg15
I0
ssg18
(dp787
g13
I0
sg14
I0
sg15
I0
ssg20
(dp788
g13
I0
sg14
I0
sg15
I0
sssg22
(dp789
g11
(dp790
g13
I0
sg14
I0
sg15
I0
ssg16
(dp791
g13
I0
sg14
I0
sg15
I0
ssg18
(dp792
g13
I0
sg14
I0
sg15
I0
ssg20
(dp793
g13
I0
sg14
I0
sg15
I0
sssg28
(dp794
g11
(dp795
g13
I0
sg14
I0
sg15
I0
ssg16
(dp796
g13
I0
sg14
I0
sg15
I0
ssg18
(dp797
g13
I0
sg14
I0
sg15
I0
ssg20
(dp798
g13
g2
(g75
S',A\x9e\xc5m:\x99A'
tRp799
sg14
F0
sg15
g2
(g75
S'\xaf\x88\x96i\xd2\xd6\x94A'
tRp800
sssg34
(dp801
g11
(dp802
g13
g2
(g75
S'\xaa\xaa\xaa\xbaq5\x7fA'
tRp803
sg14
F325.8672161371789
sg15
g2
(g75
S'\xaa\xaa\xaab\x87\xe9}A'
tRp804
ssg16
(dp805
g13
g2
(g75
S'\x00\x00\x00\x80d\x11;A'
tRp806
sg14
F7.916666666666667
sg15
g2
(g75
S'\x01\x00\x00\x80[\xdf9A'
tRp807
ssg18
(dp808
g13
g2
(g75
S'fff\xc8\xd6B\x89A'
tRp809
sg14
F137.12535484250859
sg15
g2
(g75
S'6\xf7\xfe\xb3\xae\x86\x83A'
tRp810
ssg20
(dp811
g13
g2
(g75
S'\x87a\x98XW%\x9cA'
tRp812
sg14
F257.98483831524311
sg15
g2
(g75
S"\x7f\xecG'\xcd\xd1\x96A"
tRp813
sssg40
(dp814
g11
(dp815
g13
g2
(g75
S'I\x92$i\x99}cA'
tRp816
sg14
F53.047556031445943
sg15
g2
(g75
S'=\xcf\xf3\x8c\xfc\x80bA'
tRp817
ssg16
(dp818
g13
g2
(g75
S'UUUU\x9d\xd8\tA'
tRp819
sg14
F10
sg15
g2
(g75
S'UUUU\x15\x1a\x00A'
tRp820
ssg18
(dp821
g13
g2
(g75
S'r\x1c\xc7\xc7\x98\xab\x87A'
tRp822
sg14
F2086.7222222222217
sg15
g2
(g75
S'\xc6q\x1ck\xe3n\x86A'
tRp823
ssg20
(dp824
g13
g2
(g75
S'N\x8c\xad\xf3\xb21xA'
tRp825
sg14
F240.65209893317623
sg15
g2
(g75
S'\xb6oX\x93\xbbovA'
tRp826
sssg46
(dp827
g11
(dp828
g13
I0
sg14
I0
sg15
I0
ssg16
(dp829
g13
I0
sg14
I0
sg15
I0
ssg18
(dp830
g13
I0
sg14
I0
sg15
I0
ssg20
(dp831
g13
I0
sg14
I0
sg15
I0
sssg52
(dp832
g11
(dp833
g13
g2
(g75
S'\x00\x00\x00\x00\x80R\xe2@'
tRp834
sg14
F0
sg15
g2
(g75
S'\x00\x00\x00\x00\x80R\xe2@'
tRp835
ssg16
(dp836
g13
g2
(g75
S'\x00\x00\x00\x00\x00[\xb8@'
tRp837
sg14
F0
sg15
g2
(g75
S'\x00\x00\x00\x00\x00[\xb8@'
tRp838
ssg18
(dp839
g13
g2
(g75
S'\x05N\xe04\x0c\xb4lA'
tRp840
sg14
F0.068955335260343947
sg15
g2
(g75
S'\x8b\xaf\xf8J\x06\niA'
tRp841
ssg20
(dp842
g13
g2
(g75
S':\x8e\xe3|\xe3\xdd\x82A'
tRp843
sg14
F20
sg15
g2
(g75
S'\xaa\xaa\xaa\xca\xff\x8c}A'
tRp844
sssg58
(dp845
g11
(dp846
g13
I0
sg14
I0
sg15
I0
ssg16
(dp847
g13
I0
sg14
I0
sg15
I0
ssg18
(dp848
g13
I0
sg14
I0
sg15
I0
ssg20
(dp849
g13
I0
sg14
I0
sg15
I0
ssssg325
(dp850
g9
(dp851
g11
(dp852
g13
I0
sg14
I0
sg15
I0
ssg16
(dp853
g13
I0
sg14
I0
sg15
I0
ssg18
(dp854
g13
I0
sg14
I0
sg15
I0
ssg20
(dp855
g13
I0
sg14
I0
sg15
I0
sssg22
(dp856
g11
(dp857
g13
I0
sg14
I0
sg15
I0
ssg16
(dp858
g13
I0
sg14
I0
sg15
I0
ssg18
(dp859
g13
I0
sg14
I0
sg15
I0
ssg20
(dp860
g13
I0
sg14
I0
sg15
I0
sssg28
(dp861
g11
(dp862
g13
I0
sg14
I0
sg15
I0
ssg16
(dp863
g13
I0
sg14
I0
sg15
I0
ssg18
(dp864
g13
I0
sg14
I0
sg15
I0
ssg20
(dp865
g13
I0
sg14
I0
sg15
I0
sssg34
(dp866
g11
(dp867
g13
I0
sg14
I0
sg15
I0
ssg16
(dp868
g13
I0
sg14
I0
sg15
I0
ssg18
(dp869
g13
I0
sg14
I0
sg15
I0
ssg20
(dp870
g13
I0
sg14
I0
sg15
I0
sssg40
(dp871
g11
(dp872
g13
I0
sg14
I0
sg15
I0
ssg16
(dp873
g13
I0
sg14
I0
sg15
I0
ssg18
(dp874
g13
I0
sg14
I0
sg15
I0
ssg20
(dp875
g13
I0
sg14
I0
sg15
I0
sssg46
(dp876
g11
(dp877
g13
I0
sg14
I0
sg15
I0
ssg16
(dp878
g13
I0
sg14
I0
sg15
I0
ssg18
(dp879
g13
I0
sg14
I0
sg15
I0
ssg20
(dp880
g13
I0
sg14
I0
sg15
I0
sssg52
(dp881
g11
(dp882
g13
I0
sg14
I0
sg15
I0
ssg16
(dp883
g13
I0
sg14
I0
sg15
I0
ssg18
(dp884
g13
I0
sg14
I0
sg15
I0
ssg20
(dp885
g13
I0
sg14
I0
sg15
I0
sssg58
(dp886
g11
(dp887
g13
I0
sg14
I0
sg15
I0
ssg16
(dp888
g13
I0
sg14
I0
sg15
I0
ssg18
(dp889
g13
I0
sg14
I0
sg15
I0
ssg20
(dp890
g13
I0
sg14
I0
sg15
I0
ssssg367
(dp891
g9
(dp892
g11
(dp893
g13
I0
sg14
I0
sg15
I0
ssg16
(dp894
g13
I0
sg14
I0
sg15
I0
ssg18
(dp895
g13
I0
sg14
I0
sg15
I0
ssg20
(dp896
g13
I0
sg14
I0
sg15
I0
sssg22
(dp897
g11
(dp898
g13
I0
sg14
I0
sg15
I0
ssg16
(dp899
g13
I0
sg14
I0
sg15
I0
ssg18
(dp900
g13
I0
sg14
I0
sg15
I0
ssg20
(dp901
g13
I0
sg14
I0
sg15
I0
sssg28
(dp902
g11
(dp903
g13
I0
sg14
I0
sg15
I0
ssg16
(dp904
g13
I0
sg14
I0
sg15
I0
ssg18
(dp905
g13
I0
sg14
I0
sg15
I0
ssg20
(dp906
g13
g2
(g75
S'\x00\x00\x00\x00\x00\xe9\xb6@'
tRp907
sg14
F0
sg15
g2
(g75
S'\x00\x00\x00\x00\x00\xe9\xb6@'
tRp908
sssg34
(dp909
g11
(dp910
g13
g2
(g75
S'\x00\x00\x00\x00\xf0\xd4\xd4@'
tRp911
sg14
F2.9166666666666665
sg15
g2
(g75
S'\x00\x00\x00\x00\xc0\xd6\xce@'
tRp912
ssg16
(dp913
g13
g2
(g75
S'\x01\x00\x00\x00\x1e}\x10A'
tRp914
sg14
F43.807137696343133
sg15
g2
(g75
S'\x01\x00\x00\x00\xc0\x9b\rA'
tRp915
ssg18
(dp916
g13
g2
(g75
S'\xa9i\x9af8\xa9AA'
tRp917
sg14
F217.99595784661727
sg15
g2
(g75
S'\xb0\xf8\x8a\xaf\xd7\x9c@A'
tRp918
ssg20
(dp919
g13
g2
(g75
S'\x80\x04\xebc\xfbFbA'
tRp920
sg14
F735.42926749844366
sg15
g2
(g75
S'\x93Z\x06\x1a\x1feaA'
tRp921
sssg40
(dp922
g11
(dp923
g13
I0
sg14
I0
sg15
I0
ssg16
(dp924
g13
I0
sg14
I0
sg15
I0
ssg18
(dp925
g13
g2
(g75
S"\x99\x99\x99\xd9 '0A"
tRp926
sg14
F60.044621080348946
sg15
g2
(g75
S'\xde\xdd\xdd\x1dd\x1a-A'
tRp927
ssg20
(dp928
g13
g2
(g75
S'\xb4`\x0bv)?HA'
tRp929
sg14
F123.83718413491187
sg15
g2
(g75
S'DDD\xa4\x7f\xfdGA'
tRp930
sssg46
(dp931
g11
(dp932
g13
I0
sg14
I0
sg15
I0
ssg16
(dp933
g13
g2
(g75
S'\x00\x00\x00\x00\x80n\xbe@'
tRp934
sg14
F0
sg15
g2
(g75
S'\x00\x00\x00\x00\x80n\xbe@'
tRp935
ssg18
(dp936
g13
g2
(g75
S'\x00\x00\x00\x00\xe8X\xe0@'
tRp937
sg14
F0
sg15
g2
(g75
S'\x00\x00\x00\x00\xe8X\xe0@'
tRp938
ssg20
(dp939
g13
g2
(g75
S'\xbb\xae\xeb\xba\xceQ\xcf@'
tRp940
sg14
F0
sg15
g2
(g75
S'eY\x96e9\xc9\xcc@'
tRp941
sssg52
(dp942
g11
(dp943
g13
g2
(g75
S'\x00\x00\x00\xd8\xd54gA'
tRp944
sg14
F0
sg15
g2
(g75
S'\x1c\xc7q\x84\x03\xa1eA'
tRp945
ssg16
(dp946
g13
g2
(g75
S'i3\x08y\x1b-LA'
tRp947
sg14
F0
sg15
g2
(g75
S'%\xfc\x93\xb5\xd1\xcaIA'
tRp948
ssg18
(dp949
g13
g2
(g75
S'R0b+\xd7\x06`A'
tRp950
sg14
F0
sg15
g2
(g75
S'\xa6K\x00\xa4\xb5\xe6]A'
tRp951
ssg20
(dp952
g13
g2
(g75
S'~F\x96\xd4\xe3oqA'
tRp953
sg14
F0
sg15
g2
(g75
S'\xfff\x9ep\x9e\xa5pA'
tRp954
sssg58
(dp955
g11
(dp956
g13
I0
sg14
I0
sg15
I0
ssg16
(dp957
g13
I0
sg14
I0
sg15
I0
ssg18
(dp958
g13
g2
(g75
S'TUUU\x05\xf2\xeb@'
tRp959
sg14
F0
sg15
g2
(g75
S'UUUU\x95P\xeb@'
tRp960
ssg20
(dp961
g13
g2
(g75
S'\x1c\xc7q\x1c\xa7\xe5\xde@'
tRp962
sg14
F0
sg15
g2
(g75
S'\xaa\xaa\xaa\xaaJ\xe5\xde@'
tRp963
ssssg445
(dp964
g9
(dp965
g11
(dp966
g13
I0
sg14
I0
sg15
I0
ssg16
(dp967
g13
g2
(g75
S'ffff\x86r5A'
tRp968
sg14
F0
sg15
g2
(g75
S'\xcd\xcc\xcc\xcc\xfa\xf6,A'
tRp969
ssg18
(dp970
g13
g2
(g75
S'\x00\x00\x00\x00\xa5\x8c5A'
tRp971
sg14
F0
sg15
g2
(g75
S'\x00\x00\x00\x00\xc0%-A'
tRp972
ssg20
(dp973
g13
g2
(g75
S'\xaa\xaa\xaa\xcar#XA'
tRp974
sg14
F0
sg15
g2
(g75
S'\x00\x00\x00\xe0\xb1\xaeQA'
tRp975
sssg22
(dp976
g11
(dp977
g13
I0
sg14
I0
sg15
I0
ssg16
(dp978
g13
I0
sg14
I0
sg15
I0
ssg18
(dp979
g13
I0
sg14
I0
sg15
I0
ssg20
(dp980
g13
I0
sg14
I0
sg15
I0
sssg28
(dp981
g11
(dp982
g13
I0
sg14
I0
sg15
I0
ssg16
(dp983
g13
I0
sg14
I0
sg15
I0
ssg18
(dp984
g13
I0
sg14
I0
sg15
I0
ssg20
(dp985
g13
g2
(g75
S'\xcc\xf3<3\x8f\x95mA'
tRp986
sg14
F0
sg15
g2
(g75
S'\xdd\xf7}\x0f\xcbeiA'
tRp987
sssg34
(dp988
g11
(dp989
g13
I0
sg14
I0
sg15
I0
ssg16
(dp990
g13
I0
sg14
I0
sg15
I0
ssg18
(dp991
g13
I0
sg14
I0
sg15
I0
ssg20
(dp992
g13
I0
sg14
I0
sg15
I0
sssg40
(dp993
g11
(dp994
g13
I0
sg14
I0
sg15
I0
ssg16
(dp995
g13
I0
sg14
I0
sg15
I0
ssg18
(dp996
g13
I0
sg14
I0
sg15
I0
ssg20
(dp997
g13
I0
sg14
I0
sg15
I0
sssg46
(dp998
g11
(dp999
g13
I0
sg14
I0
sg15
I0
ssg16
(dp1000
g13
I0
sg14
I0
sg15
I0
ssg18
(dp1001
g13
I0
sg14
I0
sg15
I0
ssg20
(dp1002
g13
I0
sg14
I0
sg15
I0
sssg52
(dp1003
g11
(dp1004
g13
I0
sg14
I0
sg15
I0
ssg16
(dp1005
g13
I0
sg14
I0
sg15
I0
ssg18
(dp1006
g13
I0
sg14
I0
sg15
I0
ssg20
(dp1007
g13
I0
sg14
I0
sg15
I0
sssg58
(dp1008
g11
(dp1009
g13
I0
sg14
I0
sg15
I0
ssg16
(dp1010
g13
I0
sg14
I0
sg15
I0
ssg18
(dp1011
g13
I0
sg14
I0
sg15
I0
ssg20
(dp1012
g13
I0
sg14
I0
sg15
I0
ssssg495
(dp1013
g9
(dp1014
g11
(dp1015
g13
I0
sg14
I0
sg15
I0
ssg16
(dp1016
g13
I0
sg14
I0
sg15
I0
ssg18
(dp1017
g13
I0
sg14
I0
sg15
I0
ssg20
(dp1018
g13
I0
sg14
I0
sg15
I0
sssg22
(dp1019
g11
(dp1020
g13
I0
sg14
I0
sg15
I0
ssg16
(dp1021
g13
I0
sg14
I0
sg15
I0
ssg18
(dp1022
g13
I0
sg14
I0
sg15
I0
ssg20
(dp1023
g13
I0
sg14
I0
sg15
I0
sssg28
(dp1024
g11
(dp1025
g13
I0
sg14
I0
sg15
I0
ssg16
(dp1026
g13
I0
sg14
I0
sg15
I0
ssg18
(dp1027
g13
I0
sg14
I0
sg15
I0
ssg20
(dp1028
g13
g2
(g75
S'\x00\x00\x00\x00\x00\x00\x00\x00'
tRp1029
sg14
I0
sg15
g2
(g75
S'\x00\x00\x00\x00\x00\x00\x00\x00'
tRp1030
sssg34
(dp1031
g11
(dp1032
g13
I0
sg14
I0
sg15
I0
ssg16
(dp1033
g13
I0
sg14
I0
sg15
I0
ssg18
(dp1034
g13
g2
(g75
S'\x00\x00\x00\x00\x00\x00\x00\x00'
tRp1035
sg14
I0
sg15
g2
(g75
S'\x00\x00\x00\x00\x00\x00\x00\x00'
tRp1036
ssg20
(dp1037
g13
g2
(g75
S'\x00\x00\x00\x00\x00\x00\x00\x00'
tRp1038
sg14
I0
sg15
g2
(g75
S'\x00\x00\x00\x00\x00\x00\x00\x00'
tRp1039
sssg40
(dp1040
g11
(dp1041
g13
I0
sg14
I0
sg15
I0
ssg16
(dp1042
g13
I0
sg14
I0
sg15
I0
ssg18
(dp1043
g13
g2
(g75
S'\x00\x00\x00\x00\x00\x00\x00\x00'
tRp1044
sg14
I0
sg15
g2
(g75
S'\x00\x00\x00\x00\x00\x00\x00\x00'
tRp1045
ssg20
(dp1046
g13
g2
(g75
S'\x00\x00\x00\x00\x00\x00\x00\x00'
tRp1047
sg14
I0
sg15
g2
(g75
S'\x00\x00\x00\x00\x00\x00\x00\x00'
tRp1048
sssg46
(dp1049
g11
(dp1050
g13
I0
sg14
I0
sg15
I0
ssg16
(dp1051
g13
I0
sg14
I0
sg15
I0
ssg18
(dp1052
g13
I0
sg14
I0
sg15
I0
ssg20
(dp1053
g13
I0
sg14
I0
sg15
I0
sssg52
(dp1054
g11
(dp1055
g13
I0
sg14
I0
sg15
I0
ssg16
(dp1056
g13
I0
sg14
I0
sg15
I0
ssg18
(dp1057
g13
g2
(g75
S'\x00\x00\x00\x00\x00\x00\x00\x00'
tRp1058
sg14
I0
sg15
g2
(g75
S'\x00\x00\x00\x00\x00\x00\x00\x00'
tRp1059
ssg20
(dp1060
g13
g2
(g75
S'\x00\x00\x00\x00\x00\x00\x00\x00'
tRp1061
sg14
I0
sg15
g2
(g75
S'\x00\x00\x00\x00\x00\x00\x00\x00'
tRp1062
sssg58
(dp1063
g11
(dp1064
g13
I0
sg14
I0
sg15
I0
ssg16
(dp1065
g13
I0
sg14
I0
sg15
I0
ssg18
(dp1066
g13
I0
sg14
I0
sg15
I0
ssg20
(dp1067
g13
I0
sg14
I0
sg15
I0
sssssg2
(g4
S'\xd8\x07\x00\x00\x00\x00\x00\x00'
tRp1068
(dp1069
g7
(dp1070
g9
(dp1071
g11
(dp1072
g13
I0
sg14
I0
sg15
I0
ssg16
(dp1073
g13
I0
sg14
I0
sg15
I0
ssg18
(dp1074
g13
I0
sg14
I0
sg15
I0
ssg20
(dp1075
g13
I0
sg14
I0
sg15
I0
sssg22
(dp1076
g11
(dp1077
g13
I0
sg14
I0
sg15
I0
ssg16
(dp1078
g13
I0
sg14
I0
sg15
I0
ssg18
(dp1079
g13
I0
sg14
I0
sg15
I0
ssg20
(dp1080
g13
I0
sg14
I0
sg15
I0
sssg28
(dp1081
g11
(dp1082
g13
I0
sg14
I0
sg15
I0
ssg16
(dp1083
g13
I0
sg14
I0
sg15
I0
ssg18
(dp1084
g13
I0
sg14
I0
sg15
I0
ssg20
(dp1085
g13
I0
sg14
I0
sg15
I0
sssg34
(dp1086
g11
(dp1087
g13
I0
sg14
I0
sg15
I0
ssg16
(dp1088
g13
I0
sg14
I0
sg15
I0
ssg18
(dp1089
g13
I0
sg14
I0
sg15
I0
ssg20
(dp1090
g13
I0
sg14
I0
sg15
I0
sssg40
(dp1091
g11
(dp1092
g13
I0
sg14
I0
sg15
I0
ssg16
(dp1093
g13
I0
sg14
I0
sg15
I0
ssg18
(dp1094
g13
I0
sg14
I0
sg15
I0
ssg20
(dp1095
g13
I0
sg14
I0
sg15
I0
sssg46
(dp1096
g11
(dp1097
g13
I0
sg14
I0
sg15
I0
ssg16
(dp1098
g13
I0
sg14
I0
sg15
I0
ssg18
(dp1099
g13
I0
sg14
I0
sg15
I0
ssg20
(dp1100
g13
I0
sg14
I0
sg15
I0
sssg52
(dp1101
g11
(dp1102
g13
I0
sg14
I0
sg15
I0
ssg16
(dp1103
g13
I0
sg14
I0
sg15
I0
ssg18
(dp1104
g13
I0
sg14
I0
sg15
I0
ssg20
(dp1105
g13
I0
sg14
I0
sg15
I0
sssg58
(dp1106
g11
(dp1107
g13
I0
sg14
I0
sg15
I0
ssg16
(dp1108
g13
I0
sg14
I0
sg15
I0
ssg18
(dp1109
g13
I0
sg14
I0
sg15
I0
ssg20
(dp1110
g13
I0
sg14
I0
sg15
I0
ssssg64
(dp1111
g9
(dp1112
g11
(dp1113
g13
I0
sg14
I0
sg15
I0
ssg16
(dp1114
g13
I0
sg14
I0
sg15
I0
ssg18
(dp1115
g13
I0
sg14
I0
sg15
I0
ssg20
(dp1116
g13
I0
sg14
I0
sg15
I0
sssg22
(dp1117
g11
(dp1118
g13
I0
sg14
I0
sg15
I0
ssg16
(dp1119
g13
I0
sg14
I0
sg15
I0
ssg18
(dp1120
g13
g2
(g75
S'\xf6c?\xf6Q\xa0MA'
tRp1121
sg14
F0.87168903283877297
sg15
g2
(g75
S'\xe6y\x9e\xe7,\x9dMA'
tRp1122
ssg20
(dp1123
g13
g2
(g75
S'xwww\xd7\xd86A'
tRp1124
sg14
F6.3245395716928448
sg15
g2
(g75
S'\xa8\x83:\xa8ST6A'
tRp1125
sssg28
(dp1126
g11
(dp1127
g13
I0
sg14
I0
sg15
I0
ssg16
(dp1128
g13
I0
sg14
I0
sg15
I0
ssg18
(dp1129
g13
I0
sg14
I0
sg15
I0
ssg20
(dp1130
g13
g2
(g75
S'\xbd6\x83 \x89\xfbvA'
tRp1131
sg14
F0
sg15
g2
(g75
S'\xae%r\x19\xe0\xeavA'
tRp1132
sssg34
(dp1133
g11
(dp1134
g13
g2
(g75
S'\xab\xaa\xaa\x9aodIA'
tRp1135
sg14
F3.3480377208037235
sg15
g2
(g75
S'UUU\xe5\x1b\x1eIA'
tRp1136
ssg16
(dp1137
g13
g2
(g75
S'&r\x7f\xabt\xeb2A'
tRp1138
sg14
F2.2620533975489328
sg15
g2
(g75
S'\xef\x98\x1a\x18\x10h2A'
tRp1139
ssg18
(dp1140
g13
g2
(g75
S'\x94iS+\x97"pA'
tRp1141
sg14
F25.23386159076032
sg15
g2
(g75
S'\xb00\xc5\xd3j\x17pA'
tRp1142
ssg20
(dp1143
g13
g2
(g75
S'Z\xb0\x05\x8fm\xeafA'
tRp1144
sg14
F41.607460513521318
sg15
g2
(g75
S'Z\xb0\x05\x1fz\xd3fA'
tRp1145
sssg40
(dp1146
g11
(dp1147
g13
I0
sg14
I0
sg15
I0
ssg16
(dp1148
g13
g2
(g75
S'\xcd\xcc\xcc\xcc\xefj\x02A'
tRp1149
sg14
F0.070257103642514196
sg15
g2
(g75
S'\xcd\xcc\xcc\xcc\xefj\x02A'
tRp1150
ssg18
(dp1151
g13
g2
(g75
S'\x8f\xe38\x0e\xaa\xaf\x1cA'
tRp1152
sg14
F0.070257103642514196
sg15
g2
(g75
S'\x8f\xe38\x0e\x85\xa3\x1bA'
tRp1153
ssg20
(dp1154
g13
g2
(g75
S'\xaa\xaa\xaa\xaa\xe8\xe0\x05A'
tRp1155
sg14
F0.27052129155684296
sg15
g2
(g75
S'\x01\x00\x00\x00\xc1\xe0\x05A'
tRp1156
sssg46
(dp1157
g11
(dp1158
g13
I0
sg14
I0
sg15
I0
ssg16
(dp1159
g13
I0
sg14
I0
sg15
I0
ssg18
(dp1160
g13
I0
sg14
I0
sg15
I0
ssg20
(dp1161
g13
I0
sg14
I0
sg15
I0
sssg52
(dp1162
g11
(dp1163
g13
g2
(g75
S'\xcd\xcc\xcc\x8c\x0b\xa29A'
tRp1164
sg14
F0.003494683963512493
sg15
g2
(g75
S'www7\xb0\x979A'
tRp1165
ssg16
(dp1166
g13
g2
(g75
S'\xab\xaa\xaa\xaa*\xff\xed@'
tRp1167
sg14
F0
sg15
g2
(g75
S'\xab\xaa\xaa\xaa*\xff\xed@'
tRp1168
ssg18
(dp1169
g13
g2
(g75
S'\x16\xafN\xbf\x8c\xc8XA'
tRp1170
sg14
F4.0272761978762865
sg15
g2
(g75
S'm\x04\xa4\x94\x88\xc8XA'
tRp1171
ssg20
(dp1172
g13
g2
(g75
S'\xf1\x15_\x91\x17\xd4EA'
tRp1173
sg14
F0.3666666666666667
sg15
g2
(g75
S'Fk\xb4\xa6L\xceEA'
tRp1174
sssg58
(dp1175
g11
(dp1176
g13
I0
sg14
I0
sg15
I0
ssg16
(dp1177
g13
I0
sg14
I0
sg15
I0
ssg18
(dp1178
g13
I0
sg14
I0
sg15
I0
ssg20
(dp1179
g13
I0
sg14
I0
sg15
I0
ssssg129
(dp1180
g9
(dp1181
g11
(dp1182
g13
I0
sg14
I0
sg15
I0
ssg16
(dp1183
g13
I0
sg14
I0
sg15
I0
ssg18
(dp1184
g13
I0
sg14
I0
sg15
I0
ssg20
(dp1185
g13
I0
sg14
I0
sg15
I0
sssg22
(dp1186
g11
(dp1187
g13
I0
sg14
I0
sg15
I0
ssg16
(dp1188
g13
I0
sg14
I0
sg15
I0
ssg18
(dp1189
g13
I0
sg14
I0
sg15
I0
ssg20
(dp1190
g13
I0
sg14
I0
sg15
I0
sssg28
(dp1191
g11
(dp1192
g13
I0
sg14
I0
sg15
I0
ssg16
(dp1193
g13
I0
sg14
I0
sg15
I0
ssg18
(dp1194
g13
I0
sg14
I0
sg15
I0
ssg20
(dp1195
g13
I0
sg14
I0
sg15
I0
sssg34
(dp1196
g11
(dp1197
g13
I0
sg14
I0
sg15
I0
ssg16
(dp1198
g13
I0
sg14
I0
sg15
I0
ssg18
(dp1199
g13
I0
sg14
I0
sg15
I0
ssg20
(dp1200
g13
I0
sg14
I0
sg15
I0
sssg40
(dp1201
g11
(dp1202
g13
I0
sg14
I0
sg15
I0
ssg16
(dp1203
g13
I0
sg14
I0
sg15
I0
ssg18
(dp1204
g13
I0
sg14
I0
sg15
I0
ssg20
(dp1205
g13
I0
sg14
I0
sg15
I0
sssg46
(dp1206
g11
(dp1207
g13
I0
sg14
I0
sg15
I0
ssg16
(dp1208
g13
I0
sg14
I0
sg15
I0
ssg18
(dp1209
g13
I0
sg14
I0
sg15
I0
ssg20
(dp1210
g13
I0
sg14
I0
sg15
I0
sssg52
(dp1211
g11
(dp1212
g13
I0
sg14
I0
sg15
I0
ssg16
(dp1213
g13
I0
sg14
I0
sg15
I0
ssg18
(dp1214
g13
I0
sg14
I0
sg15
I0
ssg20
(dp1215
g13
I0
sg14
I0
sg15
I0
sssg58
(dp1216
g11
(dp1217
g13
I0
sg14
I0
sg15
I0
ssg16
(dp1218
g13
I0
sg14
I0
sg15
I0
ssg18
(dp1219
g13
I0
sg14
I0
sg15
I0
ssg20
(dp1220
g13
I0
sg14
I0
sg15
I0
ssssg171
(dp1221
g9
(dp1222
g11
(dp1223
g13
I0
sg14
I0
sg15
I0
ssg16
(dp1224
g13
g2
(g75
S'B\x1d\xd4AW^5A'
tRp1225
sg14
F0
sg15
g2
(g75
S'\x9a\x99\x99\x995F/A'
tRp1226
ssg18
(dp1227
g13
g2
(g75
S'\x11\x11\x11\xd1=K6A'
tRp1228
sg14
F0
sg15
g2
(g75
S'"""\xe2\\Z0A'
tRp1229
ssg20
(dp1230
g13
g2
(g75
S'\x88\xfayU0\xa2^A'
tRp1231
sg14
F0
sg15
g2
(g75
S'\xd34M\xe3QdUA'
tRp1232
sssg22
(dp1233
g11
(dp1234
g13
g2
(g75
S'\xab\xaa\xaa\xaa\xbai\xf8@'
tRp1235
sg14
F11.666666666666668
sg15
g2
(g75
S'\xab\xaa\xaa\xaa\x8a\xd1\xf2@'
tRp1236
ssg16
(dp1237
g13
I0
sg14
I0
sg15
I0
ssg18
(dp1238
g13
g2
(g75
S'b\x18\x86\xe1\xe4=TA'
tRp1239
sg14
F102.96920790200107
sg15
g2
(g75
S'\xae\xf8\x8a\x8fyMSA'
tRp1240
ssg20
(dp1241
g13
g2
(g75
S'gfffj\xafMA'
tRp1242
sg14
F20.074539571692846
sg15
g2
(g75
S'~\xec\xc7\x9e\x9elMA'
tRp1243
sssg28
(dp1244
g11
(dp1245
g13
I0
sg14
I0
sg15
I0
ssg16
(dp1246
g13
I0
sg14
I0
sg15
I0
ssg18
(dp1247
g13
I0
sg14
I0
sg15
I0
ssg20
(dp1248
g13
g2
(g75
S';\xd1pS\xf6\x00\x98A'
tRp1249
sg14
F0
sg15
g2
(g75
S'G\xecr\x13\xe2\x10\x95A'
tRp1250
sssg34
(dp1251
g11
(dp1252
g13
g2
(g75
S'\x06yJ!6\n\x81A'
tRp1253
sg14
F140.56628390868943
sg15
g2
(g75
S'pX\xfb\xdbOM\x80A'
tRp1254
ssg16
(dp1255
g13
g2
(g75
S'G\x85T(zyiA'
tRp1256
sg14
F145.05796765321139
sg15
g2
(g75
S'\x10\xd9\xd6\x9c\xe1\xbcaA'
tRp1257
ssg18
(dp1258
g13
g2
(g75
S's\x99K\xd9\xd0y\xa1A'
tRp1259
sg14
F1012.181684499546
sg15
g2
(g75
S'Y\xdd\xecu\xd3\x1d\x9cA'
tRp1260
ssg20
(dp1261
g13
g2
(g75
S'\x1e*\xd64\xbd"\xa1A'
tRp1262
sg14
F1007.2552771669033
sg15
g2
(g75
S'\xa6\xd9\x8e\xf7\xb8#\x9dA'
tRp1263
sssg40
(dp1264
g11
(dp1265
g13
g2
(g75
S'\x00\x00\x00\x80:#\x11A'
tRp1266
sg14
F10
sg15
g2
(g75
S'\x00\x00\x00\x0078\x10A'
tRp1267
ssg16
(dp1268
g13
g2
(g75
S'\xed\xc5\x01\x90\x8fEVA'
tRp1269
sg14
F87.295860081206456
sg15
g2
(g75
S'\xa43\xdd\x06\xc70UA'
tRp1270
ssg18
(dp1271
g13
g2
(g75
S'X\xd2\x99\xce9\xce\x82A'
tRp1272
sg14
F500.92837847241378
sg15
g2
(g75
S'\x91mMtx\xa0\x80A'
tRp1273
ssg20
(dp1274
g13
g2
(g75
S'\xabT\xd6K\x0c\xe7`A'
tRp1275
sg14
F252.69335085423981
sg15
g2
(g75
S'\xc4\x84c\x95\x06\x05_A'
tRp1276
sssg46
(dp1277
g11
(dp1278
g13
I0
sg14
I0
sg15
I0
ssg16
(dp1279
g13
I0
sg14
I0
sg15
I0
ssg18
(dp1280
g13
g2
(g75
S'\xc2\x07\x1f,$\x80CA'
tRp1281
sg14
F0
sg15
g2
(g75
S'\xe1\x83\x0f\x0ec\x98BA'
tRp1282
ssg20
(dp1283
g13
g2
(g75
S'\xab\xaa\xaa\xaal\xe3\tA'
tRp1284
sg14
F0
sg15
g2
(g75
S'\x00\x00\x00\x00N\xb5\x08A'
tRp1285
sssg52
(dp1286
g11
(dp1287
g13
g2
(g75
S'\xbb\xbb\xbb\x0f\x8f\xbc\x81A'
tRp1288
sg14
F0.003494683963512493
sg15
g2
(g75
S'\xdb\n\xc5\x01\x81^\x81A'
tRp1289
ssg16
(dp1290
g13
g2
(g75
S'VUU\x85\xeb)WA'
tRp1291
sg14
F0
sg15
g2
(g75
S'\x1a0\x8d\xc9\x85\xa9SA'
tRp1292
ssg18
(dp1293
g13
g2
(g75
S'\x9dL\x9b\xa5\x82\xb9\x85A'
tRp1294
sg14
F4.0272761978762865
sg15
g2
(g75
S'\x10\xf5\xf3\xb6\xe0P\x83A'
tRp1295
ssg20
(dp1296
g13
g2
(g75
S'dL\xc6\x86]o\x86A'
tRp1297
sg14
F0.3666666666666667
sg15
g2
(g75
S'\x98+\xa2\xdeW\x9e\x83A'
tRp1298
sssg58
(dp1299
g11
(dp1300
g13
I0
sg14
I0
sg15
I0
ssg16
(dp1301
g13
I0
sg14
I0
sg15
I0
ssg18
(dp1302
g13
g2
(g75
S'\xff\xff\xff\xff\xdd\x95\x00A'
tRp1303
sg14
F0
sg15
g2
(g75
S'\xab\xaa\xaa\xaa\x82=\x00A'
tRp1304
ssg20
(dp1305
g13
g2
(g75
S'\xca\xf9\xb3\x9cm=,A'
tRp1306
sg14
F0
sg15
g2
(g75
S'u\xa4^\xc7J\xb6+A'
tRp1307
ssssg259
(dp1308
g9
(dp1309
g11
(dp1310
g13
I0
sg14
I0
sg15
I0
ssg16
(dp1311
g13
I0
sg14
I0
sg15
I0
ssg18
(dp1312
g13
I0
sg14
I0
sg15
I0
ssg20
(dp1313
g13
I0
sg14
I0
sg15
I0
sssg22
(dp1314
g11
(dp1315
g13
g2
(g75
S'\xab\xaa\xaa\xaa\xbai\xf8@'
tRp1316
sg14
F11.666666666666668
sg15
g2
(g75
S'\xab\xaa\xaa\xaa\x8a\xd1\xf2@'
tRp1317
ssg16
(dp1318
g13
I0
sg14
I0
sg15
I0
ssg18
(dp1319
g13
g2
(g75
S'\x9a\x99\x99\x99\xef\xb65A'
tRp1320
sg14
F102.0975188691623
sg15
g2
(g75
S'\xee\xee\xeen\x8c\xfb1A'
tRp1321
ssg20
(dp1322
g13
g2
(g75
S'\xab\xaa\xaa\xaa\xfeBBA'
tRp1323
sg14
F13.75
sg15
g2
(g75
S'\xaa\xaa\xaa\xcatBBA'
tRp1324
sssg28
(dp1325
g11
(dp1326
g13
I0
sg14
I0
sg15
I0
ssg16
(dp1327
g13
I0
sg14
I0
sg15
I0
ssg18
(dp1328
g13
I0
sg14
I0
sg15
I0
ssg20
(dp1329
g13
g2
(g75
S'\x0bDo\x04\tT\x8dA'
tRp1330
sg14
F0
sg15
g2
(g75
S'\x97\xcazR\x11\xc4\x88A'
tRp1331
sssg34
(dp1332
g11
(dp1333
g13
g2
(g75
S'aG\xeaMk\xe4~A'
tRp1334
sg14
F135.91332854836841
sg15
g2
(g75
S'\xe0\xb0\xf6Qis}A'
tRp1335
ssg16
(dp1336
g13
g2
(g75
S'\xadA\x8f\xd5\xf4\xc4fA'
tRp1337
sg14
F127.61182692495839
sg15
g2
(g75
S'W(n\x95\xe24^A'
tRp1338
ssg18
(dp1339
g13
g2
(g75
S'\xc0P#D\x9b\xd4\x9dA'
tRp1340
sg14
F598.20738302254847
sg15
g2
(g75
S"('\xfe\x17O\x0b\x97A"
tRp1341
ssg20
(dp1342
g13
g2
(g75
S'\n\xf4\x91&\xf7\xea\x9eA'
tRp1343
sg14
F739.17344523762074
sg15
g2
(g75
S"/\x8d\x81'\x15\xd5\x99A"
tRp1344
sssg40
(dp1345
g11
(dp1346
g13
g2
(g75
S'\x00\x00\x00\x80:#\x11A'
tRp1347
sg14
F10
sg15
g2
(g75
S'\x00\x00\x00\x0078\x10A'
tRp1348
ssg16
(dp1349
g13
g2
(g75
S'\xe0\x04N\xd0\xdd8EA'
tRp1350
sg14
F77.488110209957554
sg15
g2
(g75
S'\xf9\x8a\xaf\xe8RtCA'
tRp1351
ssg18
(dp1352
g13
g2
(g75
S'\x88n\xe8s5\xe7\x80A'
tRp1353
sg14
F382.07552146918232
sg15
g2
(g75
S'`\xf1\x15\x15\x06\x9d}A'
tRp1354
ssg20
(dp1355
g13
g2
(g75
S'\xe7y\x9e\x07k\x84ZA'
tRp1356
sg14
F220.27997241982584
sg15
g2
(g75
S'\x92$I\xda\x01\xcfWA'
tRp1357
sssg46
(dp1358
g11
(dp1359
g13
I0
sg14
I0
sg15
I0
ssg16
(dp1360
g13
I0
sg14
I0
sg15
I0
ssg18
(dp1361
g13
I0
sg14
I0
sg15
I0
ssg20
(dp1362
g13
g2
(g75
S'\x00\x00\x00\x00\x92\xa4\x03A'
tRp1363
sg14
F0
sg15
g2
(g75
S'\x00\x00\x00\x00\x92\xa4\x03A'
tRp1364
sssg52
(dp1365
g11
(dp1366
g13
g2
(g75
S'\xaa\xaa\xaa\xde-\xbevA'
tRp1367
sg14
F0
sg15
g2
(g75
S'\xcc\xcc\xccx\xe49vA'
tRp1368
ssg16
(dp1369
g13
g2
(g75
S'\x9bl\xb2IH\x8b(A'
tRp1370
sg14
F0
sg15
g2
(g75
S'\xf1\xc1\x07\x9f_\xe1!A'
tRp1371
ssg18
(dp1372
g13
g2
(g75
S'$vy\xd4\xad\xf8wA'
tRp1373
sg14
F0
sg15
g2
(g75
S'\xc4\x82\xe6\x18\x01:tA'
tRp1374
ssg20
(dp1375
g13
g2
(g75
S'\xb1\x12+\x8d\xcc\xb8uA'
tRp1376
sg14
F0
sg15
g2
(g75
S'\xfc\xbe\xef\x93\x04\xf4pA'
tRp1377
sssg58
(dp1378
g11
(dp1379
g13
I0
sg14
I0
sg15
I0
ssg16
(dp1380
g13
I0
sg14
I0
sg15
I0
ssg18
(dp1381
g13
I0
sg14
I0
sg15
I0
ssg20
(dp1382
g13
I0
sg14
I0
sg15
I0
ssssg325
(dp1383
g9
(dp1384
g11
(dp1385
g13
I0
sg14
I0
sg15
I0
ssg16
(dp1386
g13
I0
sg14
I0
sg15
I0
ssg18
(dp1387
g13
I0
sg14
I0
sg15
I0
ssg20
(dp1388
g13
I0
sg14
I0
sg15
I0
sssg22
(dp1389
g11
(dp1390
g13
I0
sg14
I0
sg15
I0
ssg16
(dp1391
g13
I0
sg14
I0
sg15
I0
ssg18
(dp1392
g13
I0
sg14
I0
sg15
I0
ssg20
(dp1393
g13
I0
sg14
I0
sg15
I0
sssg28
(dp1394
g11
(dp1395
g13
I0
sg14
I0
sg15
I0
ssg16
(dp1396
g13
I0
sg14
I0
sg15
I0
ssg18
(dp1397
g13
I0
sg14
I0
sg15
I0
ssg20
(dp1398
g13
I0
sg14
I0
sg15
I0
sssg34
(dp1399
g11
(dp1400
g13
I0
sg14
I0
sg15
I0
ssg16
(dp1401
g13
I0
sg14
I0
sg15
I0
ssg18
(dp1402
g13
I0
sg14
I0
sg15
I0
ssg20
(dp1403
g13
I0
sg14
I0
sg15
I0
sssg40
(dp1404
g11
(dp1405
g13
I0
sg14
I0
sg15
I0
ssg16
(dp1406
g13
I0
sg14
I0
sg15
I0
ssg18
(dp1407
g13
I0
sg14
I0
sg15
I0
ssg20
(dp1408
g13
I0
sg14
I0
sg15
I0
sssg46
(dp1409
g11
(dp1410
g13
I0
sg14
I0
sg15
I0
ssg16
(dp1411
g13
I0
sg14
I0
sg15
I0
ssg18
(dp1412
g13
I0
sg14
I0
sg15
I0
ssg20
(dp1413
g13
I0
sg14
I0
sg15
I0
sssg52
(dp1414
g11
(dp1415
g13
I0
sg14
I0
sg15
I0
ssg16
(dp1416
g13
I0
sg14
I0
sg15
I0
ssg18
(dp1417
g13
I0
sg14
I0
sg15
I0
ssg20
(dp1418
g13
I0
sg14
I0
sg15
I0
sssg58
(dp1419
g11
(dp1420
g13
I0
sg14
I0
sg15
I0
ssg16
(dp1421
g13
I0
sg14
I0
sg15
I0
ssg18
(dp1422
g13
I0
sg14
I0
sg15
I0
ssg20
(dp1423
g13
I0
sg14
I0
sg15
I0
ssssg367
(dp1424
g9
(dp1425
g11
(dp1426
g13
I0
sg14
I0
sg15
I0
ssg16
(dp1427
g13
I0
sg14
I0
sg15
I0
ssg18
(dp1428
g13
I0
sg14
I0
sg15
I0
ssg20
(dp1429
g13
I0
sg14
I0
sg15
I0
sssg22
(dp1430
g11
(dp1431
g13
I0
sg14
I0
sg15
I0
ssg16
(dp1432
g13
I0
sg14
I0
sg15
I0
ssg18
(dp1433
g13
I0
sg14
I0
sg15
I0
ssg20
(dp1434
g13
I0
sg14
I0
sg15
I0
sssg28
(dp1435
g11
(dp1436
g13
I0
sg14
I0
sg15
I0
ssg16
(dp1437
g13
I0
sg14
I0
sg15
I0
ssg18
(dp1438
g13
I0
sg14
I0
sg15
I0
ssg20
(dp1439
g13
I0
sg14
I0
sg15
I0
sssg34
(dp1440
g11
(dp1441
g13
g2
(g75
S'\xab\xaa\xaa\xaa\n\x98\xcb@'
tRp1442
sg14
F1.304917639517301
sg15
g2
(g75
S'\xab\xaa\xaa\xaaJ\x97\xcb@'
tRp1443
ssg16
(dp1444
g13
g2
(g75
S'VUUU\xaf\xc5\x05A'
tRp1445
sg14
F15.184087330704084
sg15
g2
(g75
S'\xc7q\x1c\xc7\x93[\x05A'
tRp1446
ssg18
(dp1447
g13
g2
(g75
S'\x1e|\xf09\nfQA'
tRp1448
sg14
F388.7404398862372
sg15
g2
(g75
S'S\xa0\xd6\x8f\x9a\xcaPA'
tRp1449
ssg20
(dp1450
g13
g2
(g75
S'\x95\x89jNdM?A'
tRp1451
sg14
F226.4743714157612
sg15
g2
(g75
S'\x14\x9b%\x0b#\r=A'
tRp1452
sssg40
(dp1453
g11
(dp1454
g13
I0
sg14
I0
sg15
I0
ssg16
(dp1455
g13
g2
(g75
S'-\xba\xe8R\x92+FA'
tRp1456
sg14
F9.7374927676063869
sg15
g2
(g75
S'\x82\x0f>(\x8c\xc6EA'
tRp1457
ssg18
(dp1458
g13
g2
(g75
S'\x93 OiP\xdaJA'
tRp1459
sg14
F118.78259989958894
sg15
g2
(g75
S'\xa41`\xfa\xe5\xaaIA'
tRp1460
ssg20
(dp1461
g13
g2
(g75
S'eh\xe3*\x99j:A'
tRp1462
sg14
F32.142857142857146
sg15
g2
(g75
S'\xc6\x80i\xcc\xfa\x1b:A'
tRp1463
sssg46
(dp1464
g11
(dp1465
g13
I0
sg14
I0
sg15
I0
ssg16
(dp1466
g13
I0
sg14
I0
sg15
I0
ssg18
(dp1467
g13
g2
(g75
S'\xc2\x07\x1f,$\x80CA'
tRp1468
sg14
F0
sg15
g2
(g75
S'\xe1\x83\x0f\x0ec\x98BA'
tRp1469
ssg20
(dp1470
g13
g2
(g75
S'\xab\xaa\xaa\xaaj\xfb\xe8@'
tRp1471
sg14
F0
sg15
g2
(g75
S'\x01\x00\x00\x00\xf0B\xe4@'
tRp1472
sssg52
(dp1473
g11
(dp1474
g13
g2
(g75
S'\xff\xff\xff\x0f\x9fAfA'
tRp1475
sg14
F0
sg15
g2
(g75
S'\xe6\xa2\x8b\x0eE\xd3eA'
tRp1476
ssg16
(dp1477
g13
g2
(g75
S'm\xb2\xc9&\x84\xdcSA'
tRp1478
sg14
F0
sg15
g2
(g75
S'\x86\xe2V\x80[1QA'
tRp1479
ssg18
(dp1480
g13
g2
(g75
S'\x9f\xee\xd2\x8dh\x90jA'
tRp1481
sg14
F0
sg15
g2
(g75
S'\x82\xcc\xb0_<khA'
tRp1482
ssg20
(dp1483
g13
g2
(g75
S'Y\xa35\x8ekktA'
tRp1484
sg14
F0
sg15
g2
(g75
S'\xca\n~\x94\xe1\x8esA'
tRp1485
sssg58
(dp1486
g11
(dp1487
g13
I0
sg14
I0
sg15
I0
ssg16
(dp1488
g13
I0
sg14
I0
sg15
I0
ssg18
(dp1489
g13
g2
(g75
S'\xff\xff\xff\xff\xdd\x95\x00A'
tRp1490
sg14
F0
sg15
g2
(g75
S'\xab\xaa\xaa\xaa\x82=\x00A'
tRp1491
ssg20
(dp1492
g13
g2
(g75
S'\xca\xf9\xb3\x9cm=,A'
tRp1493
sg14
F0
sg15
g2
(g75
S'u\xa4^\xc7J\xb6+A'
tRp1494
ssssg445
(dp1495
g9
(dp1496
g11
(dp1497
g13
I0
sg14
I0
sg15
I0
ssg16
(dp1498
g13
g2
(g75
S'B\x1d\xd4AW^5A'
tRp1499
sg14
F0
sg15
g2
(g75
S'\x9a\x99\x99\x995F/A'
tRp1500
ssg18
(dp1501
g13
g2
(g75
S'\x11\x11\x11\xd1=K6A'
tRp1502
sg14
F0
sg15
g2
(g75
S'"""\xe2\\Z0A'
tRp1503
ssg20
(dp1504
g13
g2
(g75
S'\x88\xfayU0\xa2^A'
tRp1505
sg14
F0
sg15
g2
(g75
S'\xd34M\xe3QdUA'
tRp1506
sssg22
(dp1507
g11
(dp1508
g13
I0
sg14
I0
sg15
I0
ssg16
(dp1509
g13
I0
sg14
I0
sg15
I0
ssg18
(dp1510
g13
I0
sg14
I0
sg15
I0
ssg20
(dp1511
g13
I0
sg14
I0
sg15
I0
sssg28
(dp1512
g11
(dp1513
g13
I0
sg14
I0
sg15
I0
ssg16
(dp1514
g13
I0
sg14
I0
sg15
I0
ssg18
(dp1515
g13
I0
sg14
I0
sg15
I0
ssg20
(dp1516
g13
g2
(g75
S'2\x0c\xc3H|\xc0lA'
tRp1517
sg14
F0
sg15
g2
(g75
S'}\xec\xc7\x1e\x0b\xa1gA'
tRp1518
sssg34
(dp1519
g11
(dp1520
g13
I0
sg14
I0
sg15
I0
ssg16
(dp1521
g13
I0
sg14
I0
sg15
I0
ssg18
(dp1522
g13
I0
sg14
I0
sg15
I0
ssg20
(dp1523
g13
I0
sg14
I0
sg15
I0
sssg40
(dp1524
g11
(dp1525
g13
I0
sg14
I0
sg15
I0
ssg16
(dp1526
g13
I0
sg14
I0
sg15
I0
ssg18
(dp1527
g13
I0
sg14
I0
sg15
I0
ssg20
(dp1528
g13
I0
sg14
I0
sg15
I0
sssg46
(dp1529
g11
(dp1530
g13
I0
sg14
I0
sg15
I0
ssg16
(dp1531
g13
I0
sg14
I0
sg15
I0
ssg18
(dp1532
g13
I0
sg14
I0
sg15
I0
ssg20
(dp1533
g13
I0
sg14
I0
sg15
I0
sssg52
(dp1534
g11
(dp1535
g13
I0
sg14
I0
sg15
I0
ssg16
(dp1536
g13
I0
sg14
I0
sg15
I0
ssg18
(dp1537
g13
I0
sg14
I0
sg15
I0
ssg20
(dp1538
g13
I0
sg14
I0
sg15
I0
sssg58
(dp1539
g11
(dp1540
g13
I0
sg14
I0
sg15
I0
ssg16
(dp1541
g13
I0
sg14
I0
sg15
I0
ssg18
(dp1542
g13
I0
sg14
I0
sg15
I0
ssg20
(dp1543
g13
I0
sg14
I0
sg15
I0
ssssg495
(dp1544
g9
(dp1545
g11
(dp1546
g13
I0
sg14
I0
sg15
I0
ssg16
(dp1547
g13
I0
sg14
I0
sg15
I0
ssg18
(dp1548
g13
I0
sg14
I0
sg15
I0
ssg20
(dp1549
g13
I0
sg14
I0
sg15
I0
sssg22
(dp1550
g11
(dp1551
g13
I0
sg14
I0
sg15
I0
ssg16
(dp1552
g13
I0
sg14
I0
sg15
I0
ssg18
(dp1553
g13
g2
(g75
S'\x00\x00\x00\x00\x00\x00\x00\x00'
tRp1554
sg14
I0
sg15
g2
(g75
S'\x00\x00\x00\x00\x00\x00\x00\x00'
tRp1555
ssg20
(dp1556
g13
I0
sg14
I0
sg15
I0
sssg28
(dp1557
g11
(dp1558
g13
I0
sg14
I0
sg15
I0
ssg16
(dp1559
g13
I0
sg14
I0
sg15
I0
ssg18
(dp1560
g13
I0
sg14
I0
sg15
I0
ssg20
(dp1561
g13
g2
(g75
S'\x00\x00\x00\x00\x00\x00\x00\x00'
tRp1562
sg14
I0
sg15
g2
(g75
S'\x00\x00\x00\x00\x00\x00\x00\x00'
tRp1563
sssg34
(dp1564
g11
(dp1565
g13
I0
sg14
I0
sg15
I0
ssg16
(dp1566
g13
g2
(g75
S'\x00\x00\x00\x00\x00\x00\x00\x00'
tRp1567
sg14
I0
sg15
g2
(g75
S'\x00\x00\x00\x00\x00\x00\x00\x00'
tRp1568
ssg18
(dp1569
g13
g2
(g75
S'\x00\x00\x00\x00\x00\x00\x00\x00'
tRp1570
sg14
I0
sg15
g2
(g75
S'\x00\x00\x00\x00\x00\x00\x00\x00'
tRp1571
ssg20
(dp1572
g13
g2
(g75
S'\x00\x00\x00\x00\x00\x00\x00\x00'
tRp1573
sg14
I0
sg15
g2
(g75
S'\x00\x00\x00\x00\x00\x00\x00\x00'
tRp1574
sssg40
(dp1575
g11
(dp1576
g13
I0
sg14
I0
sg15
I0
ssg16
(dp1577
g13
I0
sg14
I0
sg15
I0
ssg18
(dp1578
g13
g2
(g75
S'\x00\x00\x00\x00\x00\x00\x00\x00'
tRp1579
sg14
I0
sg15
g2
(g75
S'\x00\x00\x00\x00\x00\x00\x00\x00'
tRp1580
ssg20
(dp1581
g13
I0
sg14
I0
sg15
I0
sssg46
(dp1582
g11
(dp1583
g13
I0
sg14
I0
sg15
I0
ssg16
(dp1584
g13
I0
sg14
I0
sg15
I0
ssg18
(dp1585
g13
I0
sg14
I0
sg15
I0
ssg20
(dp1586
g13
I0
sg14
I0
sg15
I0
sssg52
(dp1587
g11
(dp1588
g13
g2
(g75
S'\x00\x00\x00\x00\x00\x00\x00\x00'
tRp1589
sg14
I0
sg15
g2
(g75
S'\x00\x00\x00\x00\x00\x00\x00\x00'
tRp1590
ssg16
(dp1591
g13
I0
sg14
I0
sg15
I0
ssg18
(dp1592
g13
g2
(g75
S'\x00\x00\x00\x00\x00\x00\x00\x00'
tRp1593
sg14
I0
sg15
g2
(g75
S'\x00\x00\x00\x00\x00\x00\x00\x00'
tRp1594
ssg20
(dp1595
g13
I0
sg14
I0
sg15
I0
sssg58
(dp1596
g11
(dp1597
g13
I0
sg14
I0
sg15
I0
ssg16
(dp1598
g13
I0
sg14
I0
sg15
I0
ssg18
(dp1599
g13
I0
sg14
I0
sg15
I0
ssg20
(dp1600
g13
I0
sg14
I0
sg15
I0
sssssg2
(g4
S'\xd9\x07\x00\x00\x00\x00\x00\x00'
tRp1601
(dp1602
g7
(dp1603
g9
(dp1604
g11
(dp1605
g13
I0
sg14
I0
sg15
I0
ssg16
(dp1606
g13
I0
sg14
I0
sg15
I0
ssg18
(dp1607
g13
I0
sg14
I0
sg15
I0
ssg20
(dp1608
g13
I0
sg14
I0
sg15
I0
sssg22
(dp1609
g11
(dp1610
g13
I0
sg14
I0
sg15
I0
ssg16
(dp1611
g13
I0
sg14
I0
sg15
I0
ssg18
(dp1612
g13
I0
sg14
I0
sg15
I0
ssg20
(dp1613
g13
I0
sg14
I0
sg15
I0
sssg28
(dp1614
g11
(dp1615
g13
I0
sg14
I0
sg15
I0
ssg16
(dp1616
g13
I0
sg14
I0
sg15
I0
ssg18
(dp1617
g13
I0
sg14
I0
sg15
I0
ssg20
(dp1618
g13
I0
sg14
I0
sg15
I0
sssg34
(dp1619
g11
(dp1620
g13
I0
sg14
I0
sg15
I0
ssg16
(dp1621
g13
I0
sg14
I0
sg15
I0
ssg18
(dp1622
g13
I0
sg14
I0
sg15
I0
ssg20
(dp1623
g13
I0
sg14
I0
sg15
I0
sssg40
(dp1624
g11
(dp1625
g13
I0
sg14
I0
sg15
I0
ssg16
(dp1626
g13
I0
sg14
I0
sg15
I0
ssg18
(dp1627
g13
I0
sg14
I0
sg15
I0
ssg20
(dp1628
g13
I0
sg14
I0
sg15
I0
sssg46
(dp1629
g11
(dp1630
g13
I0
sg14
I0
sg15
I0
ssg16
(dp1631
g13
I0
sg14
I0
sg15
I0
ssg18
(dp1632
g13
I0
sg14
I0
sg15
I0
ssg20
(dp1633
g13
I0
sg14
I0
sg15
I0
sssg52
(dp1634
g11
(dp1635
g13
I0
sg14
I0
sg15
I0
ssg16
(dp1636
g13
I0
sg14
I0
sg15
I0
ssg18
(dp1637
g13
I0
sg14
I0
sg15
I0
ssg20
(dp1638
g13
I0
sg14
I0
sg15
I0
sssg58
(dp1639
g11
(dp1640
g13
I0
sg14
I0
sg15
I0
ssg16
(dp1641
g13
I0
sg14
I0
sg15
I0
ssg18
(dp1642
g13
I0
sg14
I0
sg15
I0
ssg20
(dp1643
g13
I0
sg14
I0
sg15
I0
ssssg64
(dp1644
g9
(dp1645
g11
(dp1646
g13
I0
sg14
I0
sg15
I0
ssg16
(dp1647
g13
I0
sg14
I0
sg15
I0
ssg18
(dp1648
g13
I0
sg14
I0
sg15
I0
ssg20
(dp1649
g13
I0
sg14
I0
sg15
I0
sssg22
(dp1650
g11
(dp1651
g13
I0
sg14
I0
sg15
I0
ssg16
(dp1652
g13
g2
(g75
S'%I\x92$\x19\x1c\x01A'
tRp1653
sg14
F0
sg15
g2
(g75
S'%I\x92$\x19\x1c\x01A'
tRp1654
ssg18
(dp1655
g13
g2
(g75
S'(}\xd27\xc2\x0ePA'
tRp1656
sg14
F0.83859596335984254
sg15
g2
(g75
S'#""\xe2\xb7\xa0LA'
tRp1657
ssg20
(dp1658
g13
g2
(g75
S'333\xb3\x05`=A'
tRp1659
sg14
F7.0638834965904254
sg15
g2
(g75
S'\x89\x88\x88\x88R\t=A'
tRp1660
sssg28
(dp1661
g11
(dp1662
g13
I0
sg14
I0
sg15
I0
ssg16
(dp1663
g13
I0
sg14
I0
sg15
I0
ssg18
(dp1664
g13
I0
sg14
I0
sg15
I0
ssg20
(dp1665
g13
g2
(g75
S'\xb8$\xd7\x00(\x9a`A'
tRp1666
sg14
F0
sg15
g2
(g75
S'\xdb\xfbw(\xc9\t\\A'
tRp1667
sssg34
(dp1668
g11
(dp1669
g13
g2
(g75
S'\xfc\xb1\x1f\xdbR\xa2RA'
tRp1670
sg14
F1.9264365288088086
sg15
g2
(g75
S'\xb2\x1f\xfbq\xc6FPA'
tRp1671
ssg16
(dp1672
g13
g2
(g75
S'\xe48\x8e\xc3\xbe\x99BA'
tRp1673
sg14
F11.002785086848647
sg15
g2
(g75
S'\x8f\xe38\xae\x0c\x88@A'
tRp1674
ssg18
(dp1675
g13
g2
(g75
S'\x06\xcd\xa1.\x8d\xf8iA'
tRp1676
sg14
F43.237741522357489
sg15
g2
(g75
S'\xaewL\xc1)\xdegA'
tRp1677
ssg20
(dp1678
g13
g2
(g75
S'\xf8)\x88\xa9\xccJpA'
tRp1679
sg14
F31.047940206342556
sg15
g2
(g75
S'\x9e;\xd1\xd0$\x98nA'
tRp1680
sssg40
(dp1681
g11
(dp1682
g13
I0
sg14
I0
sg15
I0
ssg16
(dp1683
g13
g2
(g75
S'\x00\x00\x00\x00\xb2\xec\x06A'
tRp1684
sg14
F0.14204068424057664
sg15
g2
(g75
S'\xaa\xaa\xaa\xaa\x8e\x9d\xff@'
tRp1685
ssg18
(dp1686
g13
g2
(g75
S'UUUU\xee8\x17A'
tRp1687
sg14
F0.14204068424057664
sg15
g2
(g75
S'\x00\x00\x00\x00%\xb2\x12A'
tRp1688
ssg20
(dp1689
g13
g2
(g75
S'\xaa\xaa\xaa\xaa\xb3\xe0\x12A'
tRp1690
sg14
F0.5
sg15
g2
(g75
S'\xab\xaa\xaa\xaa\xce\x90\xff@'
tRp1691
sssg46
(dp1692
g11
(dp1693
g13
I0
sg14
I0
sg15
I0
ssg16
(dp1694
g13
I0
sg14
I0
sg15
I0
ssg18
(dp1695
g13
I0
sg14
I0
sg15
I0
ssg20
(dp1696
g13
I0
sg14
I0
sg15
I0
sssg52
(dp1697
g11
(dp1698
g13
g2
(g75
S'\x16_\xf1\x15\xf5\x0b7A'
tRp1699
sg14
F0.5
sg15
g2
(g75
S'|\xc5W|\xc8\xe66A'
tRp1700
ssg16
(dp1701
g13
g2
(g75
S'VUUUI\x88\xfc@'
tRp1702
sg14
F0
sg15
g2
(g75
S'\x00\x00\x00\x00\xac+\xfb@'
tRp1703
ssg18
(dp1704
g13
g2
(g75
S'\xc3\xa2\xfdG\xf9\x97`A'
tRp1705
sg14
F1.7136492497823297
sg15
g2
(g75
S"\x1d\xb8$'#\xbf\\A"
tRp1706
ssg20
(dp1707
g13
g2
(g75
S'\x13\x0f\x94\xacenHA'
tRp1708
sg14
F0.33333333333333331
sg15
g2
(g75
S'\x99p\xacr\x1b~FA'
tRp1709
sssg58
(dp1710
g11
(dp1711
g13
I0
sg14
I0
sg15
I0
ssg16
(dp1712
g13
I0
sg14
I0
sg15
I0
ssg18
(dp1713
g13
I0
sg14
I0
sg15
I0
ssg20
(dp1714
g13
I0
sg14
I0
sg15
I0
ssssg129
(dp1715
g9
(dp1716
g11
(dp1717
g13
I0
sg14
I0
sg15
I0
ssg16
(dp1718
g13
I0
sg14
I0
sg15
I0
ssg18
(dp1719
g13
I0
sg14
I0
sg15
I0
ssg20
(dp1720
g13
I0
sg14
I0
sg15
I0
sssg22
(dp1721
g11
(dp1722
g13
I0
sg14
I0
sg15
I0
ssg16
(dp1723
g13
I0
sg14
I0
sg15
I0
ssg18
(dp1724
g13
I0
sg14
I0
sg15
I0
ssg20
(dp1725
g13
I0
sg14
I0
sg15
I0
sssg28
(dp1726
g11
(dp1727
g13
I0
sg14
I0
sg15
I0
ssg16
(dp1728
g13
I0
sg14
I0
sg15
I0
ssg18
(dp1729
g13
I0
sg14
I0
sg15
I0
ssg20
(dp1730
g13
I0
sg14
I0
sg15
I0
sssg34
(dp1731
g11
(dp1732
g13
I0
sg14
I0
sg15
I0
ssg16
(dp1733
g13
I0
sg14
I0
sg15
I0
ssg18
(dp1734
g13
I0
sg14
I0
sg15
I0
ssg20
(dp1735
g13
I0
sg14
I0
sg15
I0
sssg40
(dp1736
g11
(dp1737
g13
I0
sg14
I0
sg15
I0
ssg16
(dp1738
g13
I0
sg14
I0
sg15
I0
ssg18
(dp1739
g13
I0
sg14
I0
sg15
I0
ssg20
(dp1740
g13
I0
sg14
I0
sg15
I0
sssg46
(dp1741
g11
(dp1742
g13
I0
sg14
I0
sg15
I0
ssg16
(dp1743
g13
I0
sg14
I0
sg15
I0
ssg18
(dp1744
g13
I0
sg14
I0
sg15
I0
ssg20
(dp1745
g13
I0
sg14
I0
sg15
I0
sssg52
(dp1746
g11
(dp1747
g13
I0
sg14
I0
sg15
I0
ssg16
(dp1748
g13
I0
sg14
I0
sg15
I0
ssg18
(dp1749
g13
I0
sg14
I0
sg15
I0
ssg20
(dp1750
g13
I0
sg14
I0
sg15
I0
sssg58
(dp1751
g11
(dp1752
g13
I0
sg14
I0
sg15
I0
ssg16
(dp1753
g13
I0
sg14
I0
sg15
I0
ssg18
(dp1754
g13
I0
sg14
I0
sg15
I0
ssg20
(dp1755
g13
I0
sg14
I0
sg15
I0
ssssg171
(dp1756
g9
(dp1757
g11
(dp1758
g13
g2
(g75
S'\x00\x00\x00\x00\x84\x14\x1bA'
tRp1759
sg14
F0
sg15
g2
(g75
S'\x00\x00\x00\x00\x84\x14\x1bA'
tRp1760
ssg16
(dp1761
g13
g2
(g75
S'\xb7m\xdb\xb6\x99\xc1\x12A'
tRp1762
sg14
F0
sg15
g2
(g75
S'I\x92$I\nR\x12A'
tRp1763
ssg18
(dp1764
g13
g2
(g75
S'VUUe\xf3\xca^A'
tRp1765
sg14
F0
sg15
g2
(g75
S'?\xf6cg\xdc\xcd[A'
tRp1766
ssg20
(dp1767
g13
g2
(g75
S'Q\x14E\xbf\xdfbsA'
tRp1768
sg14
F0
sg15
g2
(g75
S'\x81 \x08p\xac-pA'
tRp1769
sssg22
(dp1770
g11
(dp1771
g13
I0
sg14
I0
sg15
I0
ssg16
(dp1772
g13
g2
(g75
S'%I\x92$\xd9\xe4\x04A'
tRp1773
sg14
F48.75
sg15
g2
(g75
S'%I\x92$\xd9\xe4\x04A'
tRp1774
ssg18
(dp1775
g13
g2
(g75
S'A\x034\xa8\xea\x89UA'
tRp1776
sg14
F162.02546830821788
sg15
g2
(g75
S'\xbc\xbb\xbb\x8b\xc0\xe1RA'
tRp1777
ssg20
(dp1778
g13
g2
(g75
S'\xde\xdd\xdd\x1d\x87\xa2?A'
tRp1779
sg14
F14.14798071513944
sg15
g2
(g75
S'\x89\x88\x88H\x98K?A'
tRp1780
sssg28
(dp1781
g11
(dp1782
g13
I0
sg14
I0
sg15
I0
ssg16
(dp1783
g13
I0
sg14
I0
sg15
I0
ssg18
(dp1784
g13
I0
sg14
I0
sg15
I0
ssg20
(dp1785
g13
g2
(g75
S'\xb6\x17\x07\x063\x08\x85A'
tRp1786
sg14
F0
sg15
g2
(g75
S'1\x19\x93\x86\x9f\xc0\x80A'
tRp1787
sssg34
(dp1788
g11
(dp1789
g13
g2
(g75
S'\xe1\x04N\xdar&\x92A'
tRp1790
sg14
F270.94900321467634
sg15
g2
(g75
S'wwwf\xe0\t\x90A'
tRp1791
ssg16
(dp1792
g13
g2
(g75
S'\xd8\x82-\xe4\x10\xbdmA'
tRp1793
sg14
F97.477275600383436
sg15
g2
(g75
S"'\xf1@qK^hA"
tRp1794
ssg18
(dp1795
g13
g2
(g75
S'\x97t&\x19\xb3\xb5\xa0A'
tRp1796
sg14
F579.28898034740325
sg15
g2
(g75
S'\xf5\x8e\xa9\xbbf+\x9bA'
tRp1797
ssg20
(dp1798
g13
g2
(g75
S'fJI\x0e:E\x9eA'
tRp1799
sg14
F507.50213265177126
sg15
g2
(g75
S'\xa2q\x0e\xf9\xbaq\x99A'
tRp1800
sssg40
(dp1801
g11
(dp1802
g13
g2
(g75
S'\x1a\x03\xa6Q\xc2\xdeJA'
tRp1803
sg14
F62.962872898546891
sg15
g2
(g75
S'\xc5\xadP\x0c\xe2\x83DA'
tRp1804
ssg16
(dp1805
g13
g2
(g75
S')A\x9e\xd2\x1a\x80ZA'
tRp1806
sg14
F190.33125876982501
sg15
g2
(g75
S'\xa0\xb8\x15\xfaD\xa1XA'
tRp1807
ssg18
(dp1808
g13
g2
(g75
S'\x1d\xff\xab\xe8\x81\x91iA'
tRp1809
sg14
F283.78910149006532
sg15
g2
(g75
S'\xdc`\x99D\xa8\xfdfA'
tRp1810
ssg20
(dp1811
g13
g2
(g75
S'\xdb\xa9\x9db\x7f\x18cA'
tRp1812
sg14
F111.16598791463261
sg15
g2
(g75
S'\xe0\x04N\xa0\xf1NaA'
tRp1813
sssg46
(dp1814
g11
(dp1815
g13
I0
sg14
I0
sg15
I0
ssg16
(dp1816
g13
I0
sg14
I0
sg15
I0
ssg18
(dp1817
g13
g2
(g75
S'\xab\xaa\xaa\xaa*\xa5\xa5@'
tRp1818
sg14
F0
sg15
g2
(g75
S'\x00\x00\x00\x00\x80\xe3\xa4@'
tRp1819
ssg20
(dp1820
g13
g2
(g75
S'\xd7\x12\xb9\xbf\xb3\xb8\x0bA'
tRp1821
sg14
F0
sg15
g2
(g75
S'\x9dj5\x85\x17\xe2\x08A'
tRp1822
sssg52
(dp1823
g11
(dp1824
g13
g2
(g75
S'-\xbe\xe230\x01dA'
tRp1825
sg14
F0.5
sg15
g2
(g75
S'\xa35Zk\x1eKcA'
tRp1826
ssg16
(dp1827
g13
g2
(g75
S'\x16\xcd\xe8\xfb7\xafzA'
tRp1828
sg14
F29.403307939788217
sg15
g2
(g75
S'P\xaf#\x95\xc1FyA'
tRp1829
ssg18
(dp1830
g13
g2
(g75
S'\x94\xf7a\xf2\x9a\x19\x88A'
tRp1831
sg14
F130.53080039832017
sg15
g2
(g75
S'\x8c!\xea\xd3)9\x86A'
tRp1832
ssg20
(dp1833
g13
g2
(g75
S'\x98R\x12,h\x1d\x85A'
tRp1834
sg14
F1687.8333333333333
sg15
g2
(g75
S'\xff\x0eM\x8b\xa7\x06\x83A'
tRp1835
sssg58
(dp1836
g11
(dp1837
g13
I0
sg14
I0
sg15
I0
ssg16
(dp1838
g13
g2
(g75
S'\xd2E\x17]\x16\xf2\x13A'
tRp1839
sg14
F0
sg15
g2
(g75
S'd\x93M6Y\x0f\x12A'
tRp1840
ssg18
(dp1841
g13
g2
(g75
S'\\g\x01\xe5\x91=VA'
tRp1842
sg14
F2.3007701619361969
sg15
g2
(g75
S'\xfc\x9e\xd8\x0c\x8e:UA'
tRp1843
ssg20
(dp1844
g13
g2
(g75
S"\x0ez,V\xf4'CA"
tRp1845
sg14
F0
sg15
g2
(g75
S'zh*2\x86H>A'
tRp1846
ssssg259
(dp1847
g9
(dp1848
g11
(dp1849
g13
I0
sg14
I0
sg15
I0
ssg16
(dp1850
g13
I0
sg14
I0
sg15
I0
ssg18
(dp1851
g13
I0
sg14
I0
sg15
I0
ssg20
(dp1852
g13
I0
sg14
I0
sg15
I0
sssg22
(dp1853
g11
(dp1854
g13
I0
sg14
I0
sg15
I0
ssg16
(dp1855
g13
g2
(g75
S'\x00\x00\x00\x00\x00F\xde@'
tRp1856
sg14
F48.75
sg15
g2
(g75
S'\x00\x00\x00\x00\x00F\xde@'
tRp1857
ssg18
(dp1858
g13
g2
(g75
S'c\x18\x86\xc1\xa1\xec5A'
tRp1859
sg14
F161.18687234485805
sg15
g2
(g75
S'\xab\xaa\xaaj\x92E2A'
tRp1860
ssg20
(dp1861
g13
g2
(g75
S'UUUU\x0b\x14\x02A'
tRp1862
sg14
F7.0840972185490143
sg15
g2
(g75
S'\x00\x00\x00\x00.\x12\x02A'
tRp1863
sssg28
(dp1864
g11
(dp1865
g13
I0
sg14
I0
sg15
I0
ssg16
(dp1866
g13
I0
sg14
I0
sg15
I0
ssg18
(dp1867
g13
I0
sg14
I0
sg15
I0
ssg20
(dp1868
g13
g2
(g75
S'D\x87\xd1\x02E\x10vA'
tRp1869
sg14
F0
sg15
g2
(g75
S'?\x05\xb1\xe0\xfcKqA'
tRp1870
sssg34
(dp1871
g11
(dp1872
g13
g2
(g75
S'\x16_\xf1\x9f$)\x90A'
tRp1873
sg14
F267.35590001920082
sg15
g2
(g75
S'\xa25Z\xc9\xc1\xa4\x8cA'
tRp1874
ssg16
(dp1875
g13
g2
(g75
S'\xb0\x05[\x94\xfa\x14hA'
tRp1876
sg14
F77.324756796909725
sg15
g2
(g75
S'\xffsn\xb1bdcA'
tRp1877
ssg18
(dp1878
g13
g2
(g75
S'^\xbd\xd5\xffP\xaa\x9cA'
tRp1879
sg14
F386.55029551684532
sg15
g2
(g75
S'%c2\xfav\xbc\x96A'
tRp1880
ssg20
(dp1881
g13
g2
(g75
S'\\t\xd1\xf7\x83\xe7\x96A'
tRp1882
sg14
F371.88039879771674
sg15
g2
(g75
S'\x8e\xd6\xe8\x9ds\xb5\x92A'
tRp1883
sssg40
(dp1884
g11
(dp1885
g13
g2
(g75
S'\x00\x00\x00@\xb8\xe3DA'
tRp1886
sg14
F62.962872898546891
sg15
g2
(g75
S'\x00\x00\x00\x00\xe0-=A'
tRp1887
ssg16
(dp1888
g13
g2
(g75
S'\x00\x00\x00@\xd39BA'
tRp1889
sg14
F179.10275292492543
sg15
g2
(g75
S'UUUU\xdf\xdb?A'
tRp1890
ssg18
(dp1891
g13
g2
(g75
S'N6\xd9\xa4\xba~\\A'
tRp1892
sg14
F259.2782272503336
sg15
g2
(g75
S'\x84\x0f>\xc8\xff\xb8XA'
tRp1893
ssg20
(dp1894
g13
g2
(g75
S'q\x1c\xc71\xb4\x92\\A'
tRp1895
sg14
F98.481106043016453
sg15
g2
(g75
S'\x8e\xe38\x1e\xcb\xd2YA'
tRp1896
sssg46
(dp1897
g11
(dp1898
g13
I0
sg14
I0
sg15
I0
ssg16
(dp1899
g13
I0
sg14
I0
sg15
I0
ssg18
(dp1900
g13
I0
sg14
I0
sg15
I0
ssg20
(dp1901
g13
g2
(g75
S'\xab\xaa\xaa\xaa\xae]\x06A'
tRp1902
sg14
F0
sg15
g2
(g75
S'\xab\xaa\xaa\xaa\xae]\x06A'
tRp1903
sssg52
(dp1904
g11
(dp1905
g13
g2
(g75
S'\x9f\xe7y>U\x04aA'
tRp1906
sg14
F0
sg15
g2
(g75
S'\x9f\xe7y\xbe\x82T`A'
tRp1907
ssg16
(dp1908
g13
g2
(g75
S'\xbb\xbb\xbb;\xcd\x82bA'
tRp1909
sg14
F0
sg15
g2
(g75
S'\x88\x88\x88X\xd0naA'
tRp1910
ssg18
(dp1911
g13
g2
(g75
S'\xf6I\x9f\xb8*\x07oA'
tRp1912
sg14
F0
sg15
g2
(g75
S'\x16l\xc12\xca\xe4lA'
tRp1913
ssg20
(dp1914
g13
g2
(g75
S'&\x9bl\xf2).uA'
tRp1915
sg14
F12.5
sg15
g2
(g75
S'l\xb2\xc9\xa6\xa8\xb9qA'
tRp1916
sssg58
(dp1917
g11
(dp1918
g13
I0
sg14
I0
sg15
I0
ssg16
(dp1919
g13
I0
sg14
I0
sg15
I0
ssg18
(dp1920
g13
I0
sg14
I0
sg15
I0
ssg20
(dp1921
g13
I0
sg14
I0
sg15
I0
ssssg325
(dp1922
g9
(dp1923
g11
(dp1924
g13
I0
sg14
I0
sg15
I0
ssg16
(dp1925
g13
I0
sg14
I0
sg15
I0
ssg18
(dp1926
g13
I0
sg14
I0
sg15
I0
ssg20
(dp1927
g13
I0
sg14
I0
sg15
I0
sssg22
(dp1928
g11
(dp1929
g13
I0
sg14
I0
sg15
I0
ssg16
(dp1930
g13
I0
sg14
I0
sg15
I0
ssg18
(dp1931
g13
I0
sg14
I0
sg15
I0
ssg20
(dp1932
g13
I0
sg14
I0
sg15
I0
sssg28
(dp1933
g11
(dp1934
g13
I0
sg14
I0
sg15
I0
ssg16
(dp1935
g13
I0
sg14
I0
sg15
I0
ssg18
(dp1936
g13
I0
sg14
I0
sg15
I0
ssg20
(dp1937
g13
I0
sg14
I0
sg15
I0
sssg34
(dp1938
g11
(dp1939
g13
I0
sg14
I0
sg15
I0
ssg16
(dp1940
g13
I0
sg14
I0
sg15
I0
ssg18
(dp1941
g13
I0
sg14
I0
sg15
I0
ssg20
(dp1942
g13
I0
sg14
I0
sg15
I0
sssg40
(dp1943
g11
(dp1944
g13
I0
sg14
I0
sg15
I0
ssg16
(dp1945
g13
I0
sg14
I0
sg15
I0
ssg18
(dp1946
g13
I0
sg14
I0
sg15
I0
ssg20
(dp1947
g13
I0
sg14
I0
sg15
I0
sssg46
(dp1948
g11
(dp1949
g13
I0
sg14
I0
sg15
I0
ssg16
(dp1950
g13
I0
sg14
I0
sg15
I0
ssg18
(dp1951
g13
I0
sg14
I0
sg15
I0
ssg20
(dp1952
g13
I0
sg14
I0
sg15
I0
sssg52
(dp1953
g11
(dp1954
g13
I0
sg14
I0
sg15
I0
ssg16
(dp1955
g13
I0
sg14
I0
sg15
I0
ssg18
(dp1956
g13
I0
sg14
I0
sg15
I0
ssg20
(dp1957
g13
I0
sg14
I0
sg15
I0
sssg58
(dp1958
g11
(dp1959
g13
I0
sg14
I0
sg15
I0
ssg16
(dp1960
g13
I0
sg14
I0
sg15
I0
ssg18
(dp1961
g13
I0
sg14
I0
sg15
I0
ssg20
(dp1962
g13
I0
sg14
I0
sg15
I0
ssssg367
(dp1963
g9
(dp1964
g11
(dp1965
g13
I0
sg14
I0
sg15
I0
ssg16
(dp1966
g13
I0
sg14
I0
sg15
I0
ssg18
(dp1967
g13
I0
sg14
I0
sg15
I0
ssg20
(dp1968
g13
I0
sg14
I0
sg15
I0
sssg22
(dp1969
g11
(dp1970
g13
I0
sg14
I0
sg15
I0
ssg16
(dp1971
g13
I0
sg14
I0
sg15
I0
ssg18
(dp1972
g13
I0
sg14
I0
sg15
I0
ssg20
(dp1973
g13
I0
sg14
I0
sg15
I0
sssg28
(dp1974
g11
(dp1975
g13
I0
sg14
I0
sg15
I0
ssg16
(dp1976
g13
I0
sg14
I0
sg15
I0
ssg18
(dp1977
g13
I0
sg14
I0
sg15
I0
ssg20
(dp1978
g13
g2
(g75
S'\x00\x00\x00\x000\x01\xcc@'
tRp1979
sg14
F0
sg15
g2
(g75
S'\x00\x00\x00\x00P~\xcb@'
tRp1980
sssg34
(dp1981
g11
(dp1982
g13
I0
sg14
I0
sg15
I0
ssg16
(dp1983
g13
g2
(g75
S'xwww\x0f\xba\xf9@'
tRp1984
sg14
F7.8997337166250627
sg15
g2
(g75
S'xwww\xb7\xd3\xf8@'
tRp1985
ssg18
(dp1986
g13
g2
(g75
S'\xe6E^\xb4\x98\xb5EA'
tRp1987
sg14
F143.41760997486705
sg15
g2
(g75
S'\x91\xf0\x08\xff`~EA'
tRp1988
ssg20
(dp1989
g13
g2
(g75
S'\xec\x0c\x89y\xa2\x1a<A'
tRp1990
sg14
F86.505611829530139
sg15
g2
(g75
S'\x18\x12\xf3\xf6\xef\x04;A'
tRp1991
sssg40
(dp1992
g11
(dp1993
g13
g2
(g75
S"j\x0c\x98F(\xec'A"
tRp1994
sg14
F0
sg15
g2
(g75
S"\x14\xb7B1\xc8\xb3'A"
tRp1995
ssg16
(dp1996
g13
g2
(g75
S')A\x9e\xa2\xcb\xabPA'
tRp1997
sg14
F11.086465160658992
sg15
g2
(g75
S'\xa0\xb8\x15\xea\xd6+PA'
tRp1998
ssg18
(dp1999
g13
g2
(g75
S'j\xb8@\xe4\xc2\xc8RA'
tRp2000
sg14
F24.368833555491179
sg15
g2
(g75
S'L\x0fi\xc2\x11\x01RA'
tRp2001
ssg20
(dp2002
g13
g2
(g75
S'3\x19\x93\xb1~\xe0@A'
tRp2003
sg14
F12.184881871616156
sg15
g2
(g75
S'\x10\xf7p\xcf\xa9\x99@A'
tRp2004
sssg46
(dp2005
g11
(dp2006
g13
I0
sg14
I0
sg15
I0
ssg16
(dp2007
g13
I0
sg14
I0
sg15
I0
ssg18
(dp2008
g13
g2
(g75
S'\xab\xaa\xaa\xaa*\xa5\xa5@'
tRp2009
sg14
F0
sg15
g2
(g75
S'\x00\x00\x00\x00\x80\xe3\xa4@'
tRp2010
ssg20
(dp2011
g13
g2
(g75
S'\xb1\xa09T\x14l\xe5@'
tRp2012
sg14
F0
sg15
g2
(g75
S'\x8f\xffU\xd4F#\xd4@'
tRp2013
sssg52
(dp2014
g11
(dp2015
g13
g2
(g75
S'\xab\xaa\xaa\xaaR\\\xeb@'
tRp2016
sg14
F0
sg15
g2
(g75
S'UUUU\x9d\xc2\xe9@'
tRp2017
ssg16
(dp2018
g13
g2
(g75
S'\xc73k\tKymA'
tRp2019
sg14
F29.403307939788217
sg15
g2
(g75
S'L\t\xf2,x\xf5kA'
tRp2020
ssg18
(dp2021
g13
g2
(g75
S'\xec\xf4e6\xa3vsA'
tRp2022
sg14
F128.81715114853785
sg15
g2
(g75
S'Y\xe1\xe6\x91TZrA'
tRp2023
ssg20
(dp2024
g13
g2
(g75
S')\x88%\xb0\xd9\xfeqA'
tRp2025
sg14
F1675
sg15
g2
(g75
S'\x7f\xddz\x01\xe3\x83qA'
tRp2026
sssg58
(dp2027
g11
(dp2028
g13
I0
sg14
I0
sg15
I0
ssg16
(dp2029
g13
g2
(g75
S'\xd2E\x17]\x16\xf2\x13A'
tRp2030
sg14
F0
sg15
g2
(g75
S'd\x93M6Y\x0f\x12A'
tRp2031
ssg18
(dp2032
g13
g2
(g75
S'\\g\x01\xe5\x91=VA'
tRp2033
sg14
F2.3007701619361969
sg15
g2
(g75
S'\xfc\x9e\xd8\x0c\x8e:UA'
tRp2034
ssg20
(dp2035
g13
g2
(g75
S"\x0ez,V\xf4'CA"
tRp2036
sg14
F0
sg15
g2
(g75
S'zh*2\x86H>A'
tRp2037
ssssg445
(dp2038
g9
(dp2039
g11
(dp2040
g13
g2
(g75
S'\x00\x00\x00\x00\x84\x14\x1bA'
tRp2041
sg14
F0
sg15
g2
(g75
S'\x00\x00\x00\x00\x84\x14\x1bA'
tRp2042
ssg16
(dp2043
g13
g2
(g75
S'\xb7m\xdb\xb6\x99\xc1\x12A'
tRp2044
sg14
F0
sg15
g2
(g75
S'I\x92$I\nR\x12A'
tRp2045
ssg18
(dp2046
g13
g2
(g75
S'VUUe\xf3\xca^A'
tRp2047
sg14
F0
sg15
g2
(g75
S'?\xf6cg\xdc\xcd[A'
tRp2048
ssg20
(dp2049
g13
g2
(g75
S'Q\x14E\xbf\xdfbsA'
tRp2050
sg14
F0
sg15
g2
(g75
S'\x81 \x08p\xac-pA'
tRp2051
sssg22
(dp2052
g11
(dp2053
g13
I0
sg14
I0
sg15
I0
ssg16
(dp2054
g13
I0
sg14
I0
sg15
I0
ssg18
(dp2055
g13
I0
sg14
I0
sg15
I0
ssg20
(dp2056
g13
I0
sg14
I0
sg15
I0
sssg28
(dp2057
g11
(dp2058
g13
I0
sg14
I0
sg15
I0
ssg16
(dp2059
g13
I0
sg14
I0
sg15
I0
ssg18
(dp2060
g13
I0
sg14
I0
sg15
I0
ssg20
(dp2061
g13
g2
(g75
S'\xa7i\x9a&\xfa^fA'
tRp2062
sg14
F0
sg15
g2
(g75
S'i\x9a\xa6\xf1\xdaoaA'
tRp2063
sssg34
(dp2064
g11
(dp2065
g13
I0
sg14
I0
sg15
I0
ssg16
(dp2066
g13
I0
sg14
I0
sg15
I0
ssg18
(dp2067
g13
I0
sg14
I0
sg15
I0
ssg20
(dp2068
g13
I0
sg14
I0
sg15
I0
sssg40
(dp2069
g11
(dp2070
g13
I0
sg14
I0
sg15
I0
ssg16
(dp2071
g13
I0
sg14
I0
sg15
I0
ssg18
(dp2072
g13
I0
sg14
I0
sg15
I0
ssg20
(dp2073
g13
I0
sg14
I0
sg15
I0
sssg46
(dp2074
g11
(dp2075
g13
I0
sg14
I0
sg15
I0
ssg16
(dp2076
g13
I0
sg14
I0
sg15
I0
ssg18
(dp2077
g13
I0
sg14
I0
sg15
I0
ssg20
(dp2078
g13
I0
sg14
I0
sg15
I0
sssg52
(dp2079
g11
(dp2080
g13
I0
sg14
I0
sg15
I0
ssg16
(dp2081
g13
I0
sg14
I0
sg15
I0
ssg18
(dp2082
g13
I0
sg14
I0
sg15
I0
ssg20
(dp2083
g13
I0
sg14
I0
sg15
I0
sssg58
(dp2084
g11
(dp2085
g13
I0
sg14
I0
sg15
I0
ssg16
(dp2086
g13
I0
sg14
I0
sg15
I0
ssg18
(dp2087
g13
I0
sg14
I0
sg15
I0
ssg20
(dp2088
g13
I0
sg14
I0
sg15
I0
ssssg495
(dp2089
g9
(dp2090
g11
(dp2091
g13
I0
sg14
I0
sg15
I0
ssg16
(dp2092
g13
I0
sg14
I0
sg15
I0
ssg18
(dp2093
g13
I0
sg14
I0
sg15
I0
ssg20
(dp2094
g13
I0
sg14
I0
sg15
I0
sssg22
(dp2095
g11
(dp2096
g13
I0
sg14
I0
sg15
I0
ssg16
(dp2097
g13
I0
sg14
I0
sg15
I0
ssg18
(dp2098
g13
g2
(g75
S'\x00\x00\x00\x00\x00\x00\x00\x00'
tRp2099
sg14
I0
sg15
g2
(g75
S'\x00\x00\x00\x00\x00\x00\x00\x00'
tRp2100
ssg20
(dp2101
g13
I0
sg14
I0
sg15
I0
sssg28
(dp2102
g11
(dp2103
g13
I0
sg14
I0
sg15
I0
ssg16
(dp2104
g13
I0
sg14
I0
sg15
I0
ssg18
(dp2105
g13
I0
sg14
I0
sg15
I0
ssg20
(dp2106
g13
g2
(g75
S'\x08\x1f|\xf0\xf9\x01 A'
tRp2107
sg14
F0
sg15
g2
(g75
S'\x10>\xf8\xe0\xa7\xdc\x1dA'
tRp2108
sssg34
(dp2109
g11
(dp2110
g13
g2
(g75
S'UUU\x95!eJA'
tRp2111
sg14
F1.6666666666666667
sg15
g2
(g75
S'UUUUcbFA'
tRp2112
ssg16
(dp2113
g13
g2
(g75
S'\x00\x00\x00\x00P\xc6\x19A'
tRp2114
sg14
F1.25
sg15
g2
(g75
S'\xab\xaa\xaa\xaa\xc4\xc7\x14A'
tRp2115
ssg18
(dp2116
g13
g2
(g75
S'\x00\x00\x00\xe0\xd8\x8aJA'
tRp2117
sg14
F6.083333333333333
sg15
g2
(g75
S'\xab\xaa\xaa*\xf0\xe6HA'
tRp2118
ssg20
(dp2119
g13
g2
(g75
S'\xbc:}\x11\xc3\xd4fA'
tRp2120
sg14
F18.06818181818182
sg15
g2
(g75
S'\xbc:}\tx\xe9cA'
tRp2121
sssg40
(dp2122
g11
(dp2123
g13
I0
sg14
I0
sg15
I0
ssg16
(dp2124
g13
I0
sg14
I0
sg15
I0
ssg18
(dp2125
g13
g2
(g75
S't\xd1E\x17\xbb?#A'
tRp2126
sg14
F0
sg15
g2
(g75
S'F\x17]t\xe5\xb0 A'
tRp2127
ssg20
(dp2128
g13
I0
sg14
I0
sg15
I0
sssg46
(dp2129
g11
(dp2130
g13
I0
sg14
I0
sg15
I0
ssg16
(dp2131
g13
I0
sg14
I0
sg15
I0
ssg18
(dp2132
g13
I0
sg14
I0
sg15
I0
ssg20
(dp2133
g13
I0
sg14
I0
sg15
I0
sssg52
(dp2134
g11
(dp2135
g13
g2
(g75
S'\x00\x00\x00\x00\x00\x00\x00\x00'
tRp2136
sg14
I0
sg15
g2
(g75
S'\x00\x00\x00\x00\x00\x00\x00\x00'
tRp2137
ssg16
(dp2138
g13
g2
(g75
S'\x00\x00\x00\x80\x1c\xa5DA'
tRp2139
sg14
F0
sg15
g2
(g75
S'3333\x8d\xcbCA'
tRp2140
ssg18
(dp2141
g13
g2
(g75
S'\x84\x0f>\xb8\x02\xb4SA'
tRp2142
sg14
F0
sg15
g2
(g75
S'\xb1\xf6\r\xcbD\xd7QA'
tRp2143
ssg20
(dp2144
g13
I0
sg14
I0
sg15
I0
sssg58
(dp2145
g11
(dp2146
g13
I0
sg14
I0
sg15
I0
ssg16
(dp2147
g13
I0
sg14
I0
sg15
I0
ssg18
(dp2148
g13
I0
sg14
I0
sg15
I0
ssg20
(dp2149
g13
I0
sg14
I0
sg15
I0
sssssg2
(g4
S'\xda\x07\x00\x00\x00\x00\x00\x00'
tRp2150
(dp2151
g7
(dp2152
g9
(dp2153
g11
(dp2154
g13
I0
sg14
I0
sg15
I0
ssg16
(dp2155
g13
I0
sg14
I0
sg15
I0
ssg18
(dp2156
g13
I0
sg14
I0
sg15
I0
ssg20
(dp2157
g13
I0
sg14
I0
sg15
I0
sssg22
(dp2158
g11
(dp2159
g13
I0
sg14
I0
sg15
I0
ssg16
(dp2160
g13
I0
sg14
I0
sg15
I0
ssg18
(dp2161
g13
I0
sg14
I0
sg15
I0
ssg20
(dp2162
g13
I0
sg14
I0
sg15
I0
sssg28
(dp2163
g11
(dp2164
g13
I0
sg14
I0
sg15
I0
ssg16
(dp2165
g13
I0
sg14
I0
sg15
I0
ssg18
(dp2166
g13
I0
sg14
I0
sg15
I0
ssg20
(dp2167
g13
I0
sg14
I0
sg15
I0
sssg34
(dp2168
g11
(dp2169
g13
I0
sg14
I0
sg15
I0
ssg16
(dp2170
g13
I0
sg14
I0
sg15
I0
ssg18
(dp2171
g13
I0
sg14
I0
sg15
I0
ssg20
(dp2172
g13
I0
sg14
I0
sg15
I0
sssg40
(dp2173
g11
(dp2174
g13
I0
sg14
I0
sg15
I0
ssg16
(dp2175
g13
I0
sg14
I0
sg15
I0
ssg18
(dp2176
g13
I0
sg14
I0
sg15
I0
ssg20
(dp2177
g13
I0
sg14
I0
sg15
I0
sssg46
(dp2178
g11
(dp2179
g13
I0
sg14
I0
sg15
I0
ssg16
(dp2180
g13
I0
sg14
I0
sg15
I0
ssg18
(dp2181
g13
I0
sg14
I0
sg15
I0
ssg20
(dp2182
g13
I0
sg14
I0
sg15
I0
sssg52
(dp2183
g11
(dp2184
g13
I0
sg14
I0
sg15
I0
ssg16
(dp2185
g13
I0
sg14
I0
sg15
I0
ssg18
(dp2186
g13
I0
sg14
I0
sg15
I0
ssg20
(dp2187
g13
I0
sg14
I0
sg15
I0
sssg58
(dp2188
g11
(dp2189
g13
I0
sg14
I0
sg15
I0
ssg16
(dp2190
g13
I0
sg14
I0
sg15
I0
ssg18
(dp2191
g13
I0
sg14
I0
sg15
I0
ssg20
(dp2192
g13
I0
sg14
I0
sg15
I0
ssssg64
(dp2193
g9
(dp2194
g11
(dp2195
g13
I0
sg14
I0
sg15
I0
ssg16
(dp2196
g13
I0
sg14
I0
sg15
I0
ssg18
(dp2197
g13
I0
sg14
I0
sg15
I0
ssg20
(dp2198
g13
I0
sg14
I0
sg15
I0
sssg22
(dp2199
g11
(dp2200
g13
g2
(g75
S'\x00\x00\x00\x00\x002\xf2@'
tRp2201
sg14
F14
sg15
g2
(g75
S'\x00\x00\x00\x00\xa0\xf9\xe2@'
tRp2202
ssg16
(dp2203
g13
g2
(g75
S'\xab\xaa\xaa\xaa\x12/\x00A'
tRp2204
sg14
F0
sg15
g2
(g75
S'\xab\xaa\xaa\xaa\x8an\xe5@'
tRp2205
ssg18
(dp2206
g13
g2
(g75
S'\x86a\x18\x06\xb2\xbcJA'
tRp2207
sg14
F55.119068728493097
sg15
g2
(g75
S'\xb6m\xdb6\xe8\xac8A'
tRp2208
ssg20
(dp2209
g13
g2
(g75
S'\x00\x00\x00\xe0\xb3bMA'
tRp2210
sg14
F44.530338170106027
sg15
g2
(g75
S'\xde\xdd\xdd\x1d\xe5\x149A'
tRp2211
sssg28
(dp2212
g11
(dp2213
g13
I0
sg14
I0
sg15
I0
ssg16
(dp2214
g13
I0
sg14
I0
sg15
I0
ssg18
(dp2215
g13
I0
sg14
I0
sg15
I0
ssg20
(dp2216
g13
g2
(g75
S'q\xc8o\xa7\xc7\\^A'
tRp2217
sg14
F0
sg15
g2
(g75
S'D5\xf7\x9e\xdd\xdeRA'
tRp2218
sssg34
(dp2219
g11
(dp2220
g13
g2
(g75
S'\xe2+\xbe\xaa\xff\x86RA'
tRp2221
sg14
F2.3245438557046185
sg15
g2
(g75
S'\xa45Zc\xfbmEA'
tRp2222
ssg16
(dp2223
g13
g2
(g75
S'\xea\xa2\x8bn\x12\xecCA'
tRp2224
sg14
F8.1599296005280575
sg15
g2
(g75
S'|\xf0\xc1\x07$\xee4A'
tRp2225
ssg18
(dp2226
g13
g2
(g75
S'L\x0bo\xf3\x98\xa0rA'
tRp2227
sg14
F32.490426006037893
sg15
g2
(g75
S'\xcfG\x94\xa9[ijA'
tRp2228
ssg20
(dp2229
g13
g2
(g75
S'\x84}5\xd4@\xa1dA'
tRp2230
sg14
F62.959631626230269
sg15
g2
(g75
S'2z\xbad\xdb+VA'
tRp2231
sssg40
(dp2232
g11
(dp2233
g13
I0
sg14
I0
sg15
I0
ssg16
(dp2234
g13
g2
(g75
S'\x00\x00\x00\x00\xa0\xa5\xf3@'
tRp2235
sg14
F0.06798556430446194
sg15
g2
(g75
S'UUUUU\x89\xb0@'
tRp2236
ssg18
(dp2237
g13
g2
(g75
S'\x9a\x99\x99\x99\x9e\xf6%A'
tRp2238
sg14
F0.095882569948685992
sg15
g2
(g75
S'""""\xca\xe4\xfe@'
tRp2239
ssg20
(dp2240
g13
g2
(g75
S'\x98r)\x97\x1f\\\x1bA'
tRp2241
sg14
F0
sg15
g2
(g75
S'VUUUD\xb4\x11A'
tRp2242
sssg46
(dp2243
g11
(dp2244
g13
I0
sg14
I0
sg15
I0
ssg16
(dp2245
g13
I0
sg14
I0
sg15
I0
ssg18
(dp2246
g13
I0
sg14
I0
sg15
I0
ssg20
(dp2247
g13
I0
sg14
I0
sg15
I0
sssg52
(dp2248
g11
(dp2249
g13
g2
(g75
S'\x00\x00\x00\x00\xe1A\x1cA'
tRp2250
sg14
I0
sg15
g2
(g75
S'\x00\x00\x00\x00\x00\x00\x00\x00'
tRp2251
ssg16
(dp2252
g13
g2
(g75
S'UUUU\xad\x15\xfc@'
tRp2253
sg14
F0
sg15
g2
(g75
S'\xaa\xaa\xaa\xaa*\xa6\xfb@'
tRp2254
ssg18
(dp2255
g13
g2
(g75
S'\xfe\x03\xfax\x8e\x99_A'
tRp2256
sg14
F2.7882976957898089
sg15
g2
(g75
S'\x8b=\x07\xde\xf4\x18TA'
tRp2257
ssg20
(dp2258
g13
g2
(g75
S'\xf9\xe0\x83\xdf\xc5=QA'
tRp2259
sg14
F1.7729544566293074
sg15
g2
(g75
S'\xa3\xe1\x02qsOCA'
tRp2260
sssg58
(dp2261
g11
(dp2262
g13
I0
sg14
I0
sg15
I0
ssg16
(dp2263
g13
I0
sg14
I0
sg15
I0
ssg18
(dp2264
g13
I0
sg14
I0
sg15
I0
ssg20
(dp2265
g13
I0
sg14
I0
sg15
I0
ssssg129
(dp2266
g9
(dp2267
g11
(dp2268
g13
I0
sg14
I0
sg15
I0
ssg16
(dp2269
g13
I0
sg14
I0
sg15
I0
ssg18
(dp2270
g13
I0
sg14
I0
sg15
I0
ssg20
(dp2271
g13
I0
sg14
I0
sg15
I0
sssg22
(dp2272
g11
(dp2273
g13
I0
sg14
I0
sg15
I0
ssg16
(dp2274
g13
I0
sg14
I0
sg15
I0
ssg18
(dp2275
g13
I0
sg14
I0
sg15
I0
ssg20
(dp2276
g13
I0
sg14
I0
sg15
I0
sssg28
(dp2277
g11
(dp2278
g13
I0
sg14
I0
sg15
I0
ssg16
(dp2279
g13
I0
sg14
I0
sg15
I0
ssg18
(dp2280
g13
I0
sg14
I0
sg15
I0
ssg20
(dp2281
g13
I0
sg14
I0
sg15
I0
sssg34
(dp2282
g11
(dp2283
g13
I0
sg14
I0
sg15
I0
ssg16
(dp2284
g13
I0
sg14
I0
sg15
I0
ssg18
(dp2285
g13
I0
sg14
I0
sg15
I0
ssg20
(dp2286
g13
I0
sg14
I0
sg15
I0
sssg40
(dp2287
g11
(dp2288
g13
I0
sg14
I0
sg15
I0
ssg16
(dp2289
g13
I0
sg14
I0
sg15
I0
ssg18
(dp2290
g13
I0
sg14
I0
sg15
I0
ssg20
(dp2291
g13
I0
sg14
I0
sg15
I0
sssg46
(dp2292
g11
(dp2293
g13
I0
sg14
I0
sg15
I0
ssg16
(dp2294
g13
I0
sg14
I0
sg15
I0
ssg18
(dp2295
g13
I0
sg14
I0
sg15
I0
ssg20
(dp2296
g13
I0
sg14
I0
sg15
I0
sssg52
(dp2297
g11
(dp2298
g13
I0
sg14
I0
sg15
I0
ssg16
(dp2299
g13
I0
sg14
I0
sg15
I0
ssg18
(dp2300
g13
I0
sg14
I0
sg15
I0
ssg20
(dp2301
g13
I0
sg14
I0
sg15
I0
sssg58
(dp2302
g11
(dp2303
g13
I0
sg14
I0
sg15
I0
ssg16
(dp2304
g13
I0
sg14
I0
sg15
I0
ssg18
(dp2305
g13
I0
sg14
I0
sg15
I0
ssg20
(dp2306
g13
I0
sg14
I0
sg15
I0
ssssg171
(dp2307
g9
(dp2308
g11
(dp2309
g13
g2
(g75
S'\x00\x00\x00\x00\x84\x14\x1bA'
tRp2310
sg14
F0
sg15
g2
(g75
S'\xab\xaa\xaa\xea&\xd89A'
tRp2311
ssg16
(dp2312
g13
g2
(g75
S'ffff\xd0\xe7 A'
tRp2313
sg14
F0
sg15
g2
(g75
S'fff&;\xdd0A'
tRp2314
ssg18
(dp2315
g13
g2
(g75
S'\xa5^G\x12\x08\x16lA'
tRp2316
sg14
F0
sg15
g2
(g75
S't\xfe,\x9f\x85\x90lA'
tRp2317
ssg20
(dp2318
g13
g2
(g75
S'\x82<%l\x1afsA'
tRp2319
sg14
F0
sg15
g2
(g75
S'\xbep:\xe9\xf5]yA'
tRp2320
sssg22
(dp2321
g11
(dp2322
g13
g2
(g75
S'r\x1c\xc7\xc1q\x93\x83A'
tRp2323
sg14
F391.73473336446472
sg15
g2
(g75
S'9\x8e\xe30\xe7\x96\x80A'
tRp2324
ssg16
(dp2325
g13
g2
(g75
S'\xab\xaa\xaa\xaa\x12/\x00A'
tRp2326
sg14
F0
sg15
g2
(g75
S'\xab\xaa\xaa\xaa\x8an\xe5@'
tRp2327
ssg18
(dp2328
g13
g2
(g75
S'\xc30\x0c+\xaa\xcfQA'
tRp2329
sg14
F984.96260702513257
sg15
g2
(g75
S"g\xe5'\x14P\x0eDA"
tRp2330
ssg20
(dp2331
g13
g2
(g75
S'\xa3\x8b.Z\xc4\xa9NA'
tRp2332
sg14
F52.333368473136332
sg15
g2
(g75
S'yJ\x90\xa7l\xa2;A'
tRp2333
sssg28
(dp2334
g11
(dp2335
g13
I0
sg14
I0
sg15
I0
ssg16
(dp2336
g13
I0
sg14
I0
sg15
I0
ssg18
(dp2337
g13
I0
sg14
I0
sg15
I0
ssg20
(dp2338
g13
g2
(g75
S'\xd9\xab\x1a\xd1\xaf\xc3pA'
tRp2339
sg14
F0
sg15
g2
(g75
S'\xe5\x99\xb5\xc2\nTiA'
tRp2340
sssg34
(dp2341
g11
(dp2342
g13
g2
(g75
S'\x91\xd0q\xd4\x8av\x92A'
tRp2343
sg14
F743.16264901912109
sg15
g2
(g75
S'\xb3\xf2\x93n\x81\x12\x90A'
tRp2344
ssg16
(dp2345
g13
g2
(g75
S'\x83\x90|\xb8\x1c\xb8\x88A'
tRp2346
sg14
F397.48316636682978
sg15
g2
(g75
S'\xd9\xe5\xd1\xd3\x843\x86A'
tRp2347
ssg18
(dp2348
g13
g2
(g75
S'\xed|\xfd\xf5\xde)\xa7A'
tRp2349
sg14
F1252.2768125087398
sg15
g2
(g75
S'\x82\x02\xae\xdd\x7f&\xa3A'
tRp2350
ssg20
(dp2351
g13
g2
(g75
S't\x99\x0b\xf6\xcb\xf0\x9cA'
tRp2352
sg14
F473.82434639078883
sg15
g2
(g75
S'\xd1\xf1\xbf\xec\xffb\x97A'
tRp2353
sssg40
(dp2354
g11
(dp2355
g13
g2
(g75
S'/\xba\xe8\xa2x"<A'
tRp2356
sg14
F4.1720523524551236
sg15
g2
(g75
S'\x8c.\xba\xe8\xb8\xe51A'
tRp2357
ssg16
(dp2358
g13
g2
(g75
S'\xff\xff\xff\xef\xff\xd3ZA'
tRp2359
sg14
F27.555807705224719
sg15
g2
(g75
S'\xaa\xaa\xaa\xba\xa6\xb4YA'
tRp2360
ssg18
(dp2361
g13
g2
(g75
S'\xb6m\xdb\xf6\x07,oA'
tRp2362
sg14
F193.84622146337114
sg15
g2
(g75
S' ""\xc21\x84kA'
tRp2363
ssg20
(dp2364
g13
g2
(g75
S'\x94\x9f\x10\x8fL\x91xA'
tRp2365
sg14
F209.69985082880976
sg15
g2
(g75
S'W\xfb\x86)\x98\xf1sA'
tRp2366
sssg46
(dp2367
g11
(dp2368
g13
I0
sg14
I0
sg15
I0
ssg16
(dp2369
g13
I0
sg14
I0
sg15
I0
ssg18
(dp2370
g13
I0
sg14
I0
sg15
I0
ssg20
(dp2371
g13
g2
(g75
S'\xb2\xc9&\x9bj;\x07A'
tRp2372
sg14
F0
sg15
g2
(g75
S'\xb2\xc9&\x9bj;\x07A'
tRp2373
sssg52
(dp2374
g11
(dp2375
g13
g2
(g75
S'I\x92$\xc9\xbe\x92 A'
tRp2376
sg14
F0
sg15
g2
(g75
S'%I\x92$I\x1b\xf3@'
tRp2377
ssg16
(dp2378
g13
g2
(g75
S'\xdah\x8d\x90!<~A'
tRp2379
sg14
F152.93829520460784
sg15
g2
(g75
S'\xb2\xcd v\x95\xf5|A'
tRp2380
ssg18
(dp2381
g13
g2
(g75
S'\x91^\x00\x00X\x1e\x92A'
tRp2382
sg14
F301.72275606844676
sg15
g2
(g75
S'\x1fQ\x86\xdf\x99\xb0\x90A'
tRp2383
ssg20
(dp2384
g13
g2
(g75
S'!O\t\x86\xbd\xe7|A'
tRp2385
sg14
F6.7877244974018147
sg15
g2
(g75
S'\xbb\x02C\xf1\xf8ywA'
tRp2386
sssg58
(dp2387
g11
(dp2388
g13
I0
sg14
I0
sg15
I0
ssg16
(dp2389
g13
g2
(g75
S'\xde\xdd\xdd\xdd\x9a\xca\x14A'
tRp2390
sg14
F0
sg15
g2
(g75
S'\x01\x00\x00\x00\x91Y\x13A'
tRp2391
ssg18
(dp2392
g13
g2
(g75
S'\xb6\x98E\x8a1\xd4XA'
tRp2393
sg14
F0
sg15
g2
(g75
S'5/9\xca\n\x84WA'
tRp2394
ssg20
(dp2395
g13
g2
(g75
S'\x00-\xe7\x0f\xab\xaf*A'
tRp2396
sg14
F0
sg15
g2
(g75
S'\xbb\xe8\xa2K\x02\xe3)A'
tRp2397
ssssg259
(dp2398
g9
(dp2399
g11
(dp2400
g13
I0
sg14
I0
sg15
I0
ssg16
(dp2401
g13
I0
sg14
I0
sg15
I0
ssg18
(dp2402
g13
I0
sg14
I0
sg15
I0
ssg20
(dp2403
g13
I0
sg14
I0
sg15
I0
sssg22
(dp2404
g11
(dp2405
g13
g2
(g75
S'\x8e\xe38\x0e9\x0fzA'
tRp2406
sg14
F374.69135802469117
sg15
g2
(g75
S'\xc8q\x1c\xa7\x94\x19vA'
tRp2407
ssg16
(dp2408
g13
I0
sg14
I0
sg15
I0
ssg18
(dp2409
g13
g2
(g75
S'\x00\x00\x00\xa0D\xc51A'
tRp2410
sg14
F929.84353829663951
sg15
g2
(g75
S'/\xba\xe8\xe2o\xdf.A'
tRp2411
ssg20
(dp2412
g13
g2
(g75
S'.\xba\xe8\xa2\x07q\x04A'
tRp2413
sg14
F7.8030303030303028
sg15
g2
(g75
S'\xd9d\x93M<l\x04A'
tRp2414
sssg28
(dp2415
g11
(dp2416
g13
I0
sg14
I0
sg15
I0
ssg16
(dp2417
g13
I0
sg14
I0
sg15
I0
ssg18
(dp2418
g13
I0
sg14
I0
sg15
I0
ssg20
(dp2419
g13
g2
(g75
S'\x91S\xad\xf6\xe4\x86ZA'
tRp2420
sg14
F0
sg15
g2
(g75
S'v\xc0{\xb5\xf2\xf6UA'
tRp2421
sssg34
(dp2422
g11
(dp2423
g13
g2
(g75
S'\xa6\xdb\x8b{\xdaD\x8cA'
tRp2424
sg14
F738.62596965801754
sg15
g2
(g75
S'\x0cB\xf2\x16/n\x89A'
tRp2425
ssg16
(dp2426
g13
g2
(g75
S'e\xe7\xa4\xea\xd7<\x85A'
tRp2427
sg14
F378.27670571097093
sg15
g2
(g75
S'\xccM\x0b\x05]\x8b\x83A'
tRp2428
ssg18
(dp2429
g13
g2
(g75
S'\xc3\x84\xe3\xaa\xdb\xe1\xa1A'
tRp2430
sg14
F1145.2752635287147
sg15
g2
(g75
S'\x172\n\xf9s\x94\x9dA'
tRp2431
ssg20
(dp2432
g13
g2
(g75
S'2D\xfd\xe29)\x96A'
tRp2433
sg14
F284.31954270920261
sg15
g2
(g75
S'\x8d\xe5\xb5Ze0\x92A'
tRp2434
sssg40
(dp2435
g11
(dp2436
g13
g2
(g75
S'/\xba\xe8\xa2x"<A'
tRp2437
sg14
F4.1720523524551236
sg15
g2
(g75
S'\x8c.\xba\xe8\xb8\xe51A'
tRp2438
ssg16
(dp2439
g13
g2
(g75
S'\x00\x00\x00\x00\xbc\x0bCA'
tRp2440
sg14
F27.487822140920258
sg15
g2
(g75
S'UUU\x95\x03\xa3AA'
tRp2441
ssg18
(dp2442
g13
g2
(g75
S'\x95K\xb9\x84\x1b,aA'
tRp2443
sg14
F172.95271984580341
sg15
g2
(g75
S'\xc30\x0c\x13\xb1\x8a^A'
tRp2444
ssg20
(dp2445
g13
g2
(g75
S'\xff\xff\xffS:\xccuA'
tRp2446
sg14
F199.57241287216462
sg15
g2
(g75
S'\xff\xff\xff\xcburqA'
tRp2447
sssg46
(dp2448
g11
(dp2449
g13
I0
sg14
I0
sg15
I0
ssg16
(dp2450
g13
I0
sg14
I0
sg15
I0
ssg18
(dp2451
g13
I0
sg14
I0
sg15
I0
ssg20
(dp2452
g13
g2
(g75
S"]t\xd1E'\x0b\x07A"
tRp2453
sg14
F0
sg15
g2
(g75
S"]t\xd1E'\x0b\x07A"
tRp2454
sssg52
(dp2455
g11
(dp2456
g13
g2
(g75
S'I\x92$Ir\x8e\xf3@'
tRp2457
sg14
F0
sg15
g2
(g75
S'%I\x92$I\x1b\xf3@'
tRp2458
ssg16
(dp2459
g13
g2
(g75
S'\xab\xaa\xaavN!bA'
tRp2460
sg14
F0.21102247733509469
sg15
g2
(g75
S'\x00\x00\x00\xec\x9b\raA'
tRp2461
ssg18
(dp2462
g13
g2
(g75
S'\xca\x98\x8c\xed\x8e\xafnA'
tRp2463
sg14
F128.64414907299386
sg15
g2
(g75
S'\xdc\x8d\x80\xd8\xde/mA'
tRp2464
ssg20
(dp2465
g13
g2
(g75
S'EDD0\x85\xa2uA'
tRp2466
sg14
F5.0147700407725075
sg15
g2
(g75
S'\xbc\xbb\xbbW\x94(rA'
tRp2467
sssg58
(dp2468
g11
(dp2469
g13
I0
sg14
I0
sg15
I0
ssg16
(dp2470
g13
I0
sg14
I0
sg15
I0
ssg18
(dp2471
g13
I0
sg14
I0
sg15
I0
ssg20
(dp2472
g13
I0
sg14
I0
sg15
I0
ssssg325
(dp2473
g9
(dp2474
g11
(dp2475
g13
I0
sg14
I0
sg15
I0
ssg16
(dp2476
g13
I0
sg14
I0
sg15
I0
ssg18
(dp2477
g13
I0
sg14
I0
sg15
I0
ssg20
(dp2478
g13
I0
sg14
I0
sg15
I0
sssg22
(dp2479
g11
(dp2480
g13
I0
sg14
I0
sg15
I0
ssg16
(dp2481
g13
I0
sg14
I0
sg15
I0
ssg18
(dp2482
g13
I0
sg14
I0
sg15
I0
ssg20
(dp2483
g13
I0
sg14
I0
sg15
I0
sssg28
(dp2484
g11
(dp2485
g13
I0
sg14
I0
sg15
I0
ssg16
(dp2486
g13
I0
sg14
I0
sg15
I0
ssg18
(dp2487
g13
I0
sg14
I0
sg15
I0
ssg20
(dp2488
g13
I0
sg14
I0
sg15
I0
sssg34
(dp2489
g11
(dp2490
g13
I0
sg14
I0
sg15
I0
ssg16
(dp2491
g13
I0
sg14
I0
sg15
I0
ssg18
(dp2492
g13
I0
sg14
I0
sg15
I0
ssg20
(dp2493
g13
I0
sg14
I0
sg15
I0
sssg40
(dp2494
g11
(dp2495
g13
I0
sg14
I0
sg15
I0
ssg16
(dp2496
g13
I0
sg14
I0
sg15
I0
ssg18
(dp2497
g13
I0
sg14
I0
sg15
I0
ssg20
(dp2498
g13
I0
sg14
I0
sg15
I0
sssg46
(dp2499
g11
(dp2500
g13
I0
sg14
I0
sg15
I0
ssg16
(dp2501
g13
I0
sg14
I0
sg15
I0
ssg18
(dp2502
g13
I0
sg14
I0
sg15
I0
ssg20
(dp2503
g13
I0
sg14
I0
sg15
I0
sssg52
(dp2504
g11
(dp2505
g13
I0
sg14
I0
sg15
I0
ssg16
(dp2506
g13
I0
sg14
I0
sg15
I0
ssg18
(dp2507
g13
I0
sg14
I0
sg15
I0
ssg20
(dp2508
g13
I0
sg14
I0
sg15
I0
sssg58
(dp2509
g11
(dp2510
g13
I0
sg14
I0
sg15
I0
ssg16
(dp2511
g13
I0
sg14
I0
sg15
I0
ssg18
(dp2512
g13
I0
sg14
I0
sg15
I0
ssg20
(dp2513
g13
I0
sg14
I0
sg15
I0
ssssg367
(dp2514
g9
(dp2515
g11
(dp2516
g13
I0
sg14
I0
sg15
I0
ssg16
(dp2517
g13
I0
sg14
I0
sg15
I0
ssg18
(dp2518
g13
I0
sg14
I0
sg15
I0
ssg20
(dp2519
g13
I0
sg14
I0
sg15
I0
sssg22
(dp2520
g11
(dp2521
g13
I0
sg14
I0
sg15
I0
ssg16
(dp2522
g13
I0
sg14
I0
sg15
I0
ssg18
(dp2523
g13
I0
sg14
I0
sg15
I0
ssg20
(dp2524
g13
I0
sg14
I0
sg15
I0
sssg28
(dp2525
g11
(dp2526
g13
I0
sg14
I0
sg15
I0
ssg16
(dp2527
g13
I0
sg14
I0
sg15
I0
ssg18
(dp2528
g13
I0
sg14
I0
sg15
I0
ssg20
(dp2529
g13
I0
sg14
I0
sg15
I0
sssg34
(dp2530
g11
(dp2531
g13
I0
sg14
I0
sg15
I0
ssg16
(dp2532
g13
g2
(g75
S'\xaa\xaa\xaa\xaa\xc2\x95\xf9@'
tRp2533
sg14
F8.2965310553307674
sg15
g2
(g75
S'VUUUu\xa1\xf8@'
tRp2534
ssg18
(dp2535
g13
g2
(g75
S'"\x13\xd5\xfc\xf5\xb04A'
tRp2536
sg14
F54.617183580047488
sg15
g2
(g75
S'\xec\x84\xf1Ck\x894A'
tRp2537
ssg20
(dp2538
g13
g2
(g75
S'\xf4\x92\xa3J\x1b\xdd3A'
tRp2539
sg14
F102.67316015252027
sg15
g2
(g75
S'\xb2u\xcf\x08\xda!3A'
tRp2540
sssg40
(dp2541
g11
(dp2542
g13
I0
sg14
I0
sg15
I0
ssg16
(dp2543
g13
g2
(g75
S'\xff\xff\xffo\x8b\xffPA'
tRp2544
sg14
F0
sg15
g2
(g75
S'\xaa\xaa\xaa\x9a\x02\xdfPA'
tRp2545
ssg18
(dp2546
g13
g2
(g75
S'\xb8\xbb\xbb\x9b\xf3CQA'
tRp2547
sg14
F20.797619047619047
sg15
g2
(g75
S'\xf5\x8a\xaf\xd8-"QA'
tRp2548
ssg20
(dp2549
g13
g2
(g75
S'[\xce\x9f\xe5\r\xbdBA'
tRp2550
sg14
F10.12743795664513
sg15
g2
(g75
S'\x190\x8da\x8a\xc2AA'
tRp2551
sssg46
(dp2552
g11
(dp2553
g13
I0
sg14
I0
sg15
I0
ssg16
(dp2554
g13
I0
sg14
I0
sg15
I0
ssg18
(dp2555
g13
I0
sg14
I0
sg15
I0
ssg20
(dp2556
g13
g2
(g75
S'\xab\xaa\xaa\xaa\xaa!\x98@'
tRp2557
sg14
F0
sg15
g2
(g75
S'\xab\xaa\xaa\xaa\xaa!\x98@'
tRp2558
sssg52
(dp2559
g11
(dp2560
g13
I0
sg14
I0
sg15
I0
ssg16
(dp2561
g13
g2
(g75
S'u\xd99\xa1\xe3^hA'
tRp2562
sg14
F152.72727272727275
sg15
g2
(g75
S'\xc9.\x8f6^\x9bgA'
tRp2563
ssg18
(dp2564
g13
g2
(g75
S'a\x18\x86;\xc1\x90\x80A'
tRp2565
sg14
F170.29030929966305
sg15
g2
(g75
S'CQ\x14\x88\x9c\x05\x80A'
tRp2566
ssg20
(dp2567
g13
g2
(g75
S'\xed\x94 \xef6\xaeGA'
tRp2568
sg14
F0
sg15
g2
(g75
S'YV7[\xb1;GA'
tRp2569
sssg58
(dp2570
g11
(dp2571
g13
I0
sg14
I0
sg15
I0
ssg16
(dp2572
g13
g2
(g75
S'\xde\xdd\xdd\xdd\x9a\xca\x14A'
tRp2573
sg14
F0
sg15
g2
(g75
S'\x01\x00\x00\x00\x91Y\x13A'
tRp2574
ssg18
(dp2575
g13
g2
(g75
S'\xb6\x98E\x8a1\xd4XA'
tRp2576
sg14
F0
sg15
g2
(g75
S'5/9\xca\n\x84WA'
tRp2577
ssg20
(dp2578
g13
g2
(g75
S'\x00-\xe7\x0f\xab\xaf*A'
tRp2579
sg14
F0
sg15
g2
(g75
S'\xbb\xe8\xa2K\x02\xe3)A'
tRp2580
ssssg445
(dp2581
g9
(dp2582
g11
(dp2583
g13
g2
(g75
S'\x00\x00\x00\x00\x84\x14\x1bA'
tRp2584
sg14
F0
sg15
g2
(g75
S'\xab\xaa\xaa\xea&\xd89A'
tRp2585
ssg16
(dp2586
g13
g2
(g75
S'ffff\xd0\xe7 A'
tRp2587
sg14
F0
sg15
g2
(g75
S'fff&;\xdd0A'
tRp2588
ssg18
(dp2589
g13
g2
(g75
S'\xa5^G\x12\x08\x16lA'
tRp2590
sg14
F0
sg15
g2
(g75
S't\xfe,\x9f\x85\x90lA'
tRp2591
ssg20
(dp2592
g13
g2
(g75
S'\x82<%l\x1afsA'
tRp2593
sg14
F0
sg15
g2
(g75
S'\xbep:\xe9\xf5]yA'
tRp2594
sssg22
(dp2595
g11
(dp2596
g13
I0
sg14
I0
sg15
I0
ssg16
(dp2597
g13
I0
sg14
I0
sg15
I0
ssg18
(dp2598
g13
I0
sg14
I0
sg15
I0
ssg20
(dp2599
g13
I0
sg14
I0
sg15
I0
sssg28
(dp2600
g11
(dp2601
g13
I0
sg14
I0
sg15
I0
ssg16
(dp2602
g13
I0
sg14
I0
sg15
I0
ssg18
(dp2603
g13
I0
sg14
I0
sg15
I0
ssg20
(dp2604
g13
g2
(g75
S'\xab\xaa\xaa\xaa\xa0\xd5 A'
tRp2605
sg14
F0
sg15
g2
(g75
S'\x00\x00\x00\x00\x8d\\"A'
tRp2606
sssg34
(dp2607
g11
(dp2608
g13
I0
sg14
I0
sg15
I0
ssg16
(dp2609
g13
I0
sg14
I0
sg15
I0
ssg18
(dp2610
g13
I0
sg14
I0
sg15
I0
ssg20
(dp2611
g13
I0
sg14
I0
sg15
I0
sssg40
(dp2612
g11
(dp2613
g13
I0
sg14
I0
sg15
I0
ssg16
(dp2614
g13
I0
sg14
I0
sg15
I0
ssg18
(dp2615
g13
I0
sg14
I0
sg15
I0
ssg20
(dp2616
g13
I0
sg14
I0
sg15
I0
sssg46
(dp2617
g11
(dp2618
g13
I0
sg14
I0
sg15
I0
ssg16
(dp2619
g13
I0
sg14
I0
sg15
I0
ssg18
(dp2620
g13
I0
sg14
I0
sg15
I0
ssg20
(dp2621
g13
I0
sg14
I0
sg15
I0
sssg52
(dp2622
g11
(dp2623
g13
I0
sg14
I0
sg15
I0
ssg16
(dp2624
g13
I0
sg14
I0
sg15
I0
ssg18
(dp2625
g13
I0
sg14
I0
sg15
I0
ssg20
(dp2626
g13
I0
sg14
I0
sg15
I0
sssg58
(dp2627
g11
(dp2628
g13
I0
sg14
I0
sg15
I0
ssg16
(dp2629
g13
I0
sg14
I0
sg15
I0
ssg18
(dp2630
g13
I0
sg14
I0
sg15
I0
ssg20
(dp2631
g13
I0
sg14
I0
sg15
I0
ssssg495
(dp2632
g9
(dp2633
g11
(dp2634
g13
I0
sg14
I0
sg15
I0
ssg16
(dp2635
g13
I0
sg14
I0
sg15
I0
ssg18
(dp2636
g13
I0
sg14
I0
sg15
I0
ssg20
(dp2637
g13
I0
sg14
I0
sg15
I0
sssg22
(dp2638
g11
(dp2639
g13
g2
(g75
S'\xab\xaa\xaa\xea\xf0\njA'
tRp2640
sg14
F3.0433753397735277
sg15
g2
(g75
S'UUU\xd5y\x15fA'
tRp2641
ssg16
(dp2642
g13
I0
sg14
I0
sg15
I0
ssg18
(dp2643
g13
I0
sg14
I0
sg15
I0
ssg20
(dp2644
g13
I0
sg14
I0
sg15
I0
sssg28
(dp2645
g11
(dp2646
g13
I0
sg14
I0
sg15
I0
ssg16
(dp2647
g13
I0
sg14
I0
sg15
I0
ssg18
(dp2648
g13
I0
sg14
I0
sg15
I0
ssg20
(dp2649
g13
g2
(g75
S'\x1f|\xf0!\xbd @A'
tRp2650
sg14
F0
sg15
g2
(g75
S'>\xf8\xe0C\xce\x1a>A'
tRp2651
sssg34
(dp2652
g11
(dp2653
g13
g2
(g75
S'\x00\x00\x00\xe0l]iA'
tRp2654
sg14
F2.2121355053989653
sg15
g2
(g75
S'\x00\x00\x00@\xd0\x7feA'
tRp2655
ssg16
(dp2656
g13
g2
(g75
S'\xcd\xcc\xcc,\xc6}QA'
tRp2657
sg14
F2.75
sg15
g2
(g75
S'\xde\xdd\xdd=_FOA'
tRp2658
ssg18
(dp2659
g13
g2
(g75
S'\xdad\x93\x05rTvA'
tRp2660
sg14
F19.893939393939394
sg15
g2
(g75
S'\x84\x0f>\x80\xeadtA'
tRp2661
ssg20
(dp2662
g13
g2
(g75
S'/\xba\xe8Z\xac\x1foA'
tRp2663
sg14
F23.872011902835691
sg15
g2
(g75
S'N6\xd9\x9c\xab\x1alA'
tRp2664
sssg40
(dp2665
g11
(dp2666
g13
I0
sg14
I0
sg15
I0
ssg16
(dp2667
g13
I0
sg14
I0
sg15
I0
ssg18
(dp2668
g13
g2
(g75
S'UUU\xd5E\xf4?A'
tRp2669
sg14
F0
sg15
g2
(g75
S'\x00\x00\x00\xc0\xc5\x7f;A'
tRp2670
ssg20
(dp2671
g13
I0
sg14
I0
sg15
I0
sssg46
(dp2672
g11
(dp2673
g13
I0
sg14
I0
sg15
I0
ssg16
(dp2674
g13
I0
sg14
I0
sg15
I0
ssg18
(dp2675
g13
I0
sg14
I0
sg15
I0
ssg20
(dp2676
g13
I0
sg14
I0
sg15
I0
sssg52
(dp2677
g11
(dp2678
g13
I0
sg14
I0
sg15
I0
ssg16
(dp2679
g13
g2
(g75
S'\xe8\xa2\x8b\xae\xe5\xbfaA'
tRp2680
sg14
F0
sg15
g2
(g75
S'F\x17]t\xe4\naA'
tRp2681
ssg18
(dp2682
g13
g2
(g75
S'\x1e|\xf0s\xb2\x19pA'
tRp2683
sg14
F0
sg15
g2
(g75
S'E\x17]\x94\x032nA'
tRp2684
ssg20
(dp2685
g13
g2
(g75
S'\x00\x00\x00\x00\x00\x00\x00\x00'
tRp2686
sg14
I0
sg15
g2
(g75
S'\x00\x00\x00\x00\x00\x00\x00\x00'
tRp2687
sssg58
(dp2688
g11
(dp2689
g13
I0
sg14
I0
sg15
I0
ssg16
(dp2690
g13
I0
sg14
I0
sg15
I0
ssg18
(dp2691
g13
I0
sg14
I0
sg15
I0
ssg20
(dp2692
g13
I0
sg14
I0
sg15
I0
sssssg2
(g4
S'\xdb\x07\x00\x00\x00\x00\x00\x00'
tRp2693
(dp2694
g7
(dp2695
g9
(dp2696
g11
(dp2697
g13
I0
sg14
I0
sg15
I0
ssg16
(dp2698
g13
I0
sg14
I0
sg15
I0
ssg18
(dp2699
g13
I0
sg14
I0
sg15
I0
ssg20
(dp2700
g13
I0
sg14
I0
sg15
I0
sssg22
(dp2701
g11
(dp2702
g13
I0
sg14
I0
sg15
I0
ssg16
(dp2703
g13
I0
sg14
I0
sg15
I0
ssg18
(dp2704
g13
I0
sg14
I0
sg15
I0
ssg20
(dp2705
g13
I0
sg14
I0
sg15
I0
sssg28
(dp2706
g11
(dp2707
g13
I0
sg14
I0
sg15
I0
ssg16
(dp2708
g13
I0
sg14
I0
sg15
I0
ssg18
(dp2709
g13
I0
sg14
I0
sg15
I0
ssg20
(dp2710
g13
I0
sg14
I0
sg15
I0
sssg34
(dp2711
g11
(dp2712
g13
I0
sg14
I0
sg15
I0
ssg16
(dp2713
g13
I0
sg14
I0
sg15
I0
ssg18
(dp2714
g13
I0
sg14
I0
sg15
I0
ssg20
(dp2715
g13
I0
sg14
I0
sg15
I0
sssg40
(dp2716
g11
(dp2717
g13
I0
sg14
I0
sg15
I0
ssg16
(dp2718
g13
I0
sg14
I0
sg15
I0
ssg18
(dp2719
g13
I0
sg14
I0
sg15
I0
ssg20
(dp2720
g13
I0
sg14
I0
sg15
I0
sssg46
(dp2721
g11
(dp2722
g13
I0
sg14
I0
sg15
I0
ssg16
(dp2723
g13
I0
sg14
I0
sg15
I0
ssg18
(dp2724
g13
I0
sg14
I0
sg15
I0
ssg20
(dp2725
g13
I0
sg14
I0
sg15
I0
sssg52
(dp2726
g11
(dp2727
g13
I0
sg14
I0
sg15
I0
ssg16
(dp2728
g13
I0
sg14
I0
sg15
I0
ssg18
(dp2729
g13
I0
sg14
I0
sg15
I0
ssg20
(dp2730
g13
I0
sg14
I0
sg15
I0
sssg58
(dp2731
g11
(dp2732
g13
I0
sg14
I0
sg15
I0
ssg16
(dp2733
g13
I0
sg14
I0
sg15
I0
ssg18
(dp2734
g13
I0
sg14
I0
sg15
I0
ssg20
(dp2735
g13
I0
sg14
I0
sg15
I0
ssssg64
(dp2736
g9
(dp2737
g11
(dp2738
g13
I0
sg14
I0
sg15
I0
ssg16
(dp2739
g13
I0
sg14
I0
sg15
I0
ssg18
(dp2740
g13
I0
sg14
I0
sg15
I0
ssg20
(dp2741
g13
I0
sg14
I0
sg15
I0
sssg22
(dp2742
g11
(dp2743
g13
g2
(g75
S'\x00\x00\x00\x00\xb0\n\xfc@'
tRp2744
sg14
F13.125
sg15
g2
(g75
S'\x00\x00\x00\x00\x80\xa7\xea@'
tRp2745
ssg16
(dp2746
g13
I0
sg14
I0
sg15
I0
ssg18
(dp2747
g13
g2
(g75
S'\x13EQ\x94\xac\xd5/A'
tRp2748
sg14
F9.8198254176026776
sg15
g2
(g75
S'\x13EQ\x94\xac\xd5/A'
tRp2749
ssg20
(dp2750
g13
g2
(g75
S'\x00\x00\x00\x00\xd0\xf0\xf3@'
tRp2751
sg14
F50.142857142857146
sg15
g2
(g75
S'\x00\x00\x00\x00\xf0}\xf0@'
tRp2752
sssg28
(dp2753
g11
(dp2754
g13
I0
sg14
I0
sg15
I0
ssg16
(dp2755
g13
I0
sg14
I0
sg15
I0
ssg18
(dp2756
g13
I0
sg14
I0
sg15
I0
ssg20
(dp2757
g13
g2
(g75
S'www\xd7\xa7\xe4QA'
tRp2758
sg14
F0
sg15
g2
(g75
S'\x9a\x99\x99Y\x89\x16LA'
tRp2759
sssg34
(dp2760
g11
(dp2761
g13
g2
(g75
S'\x00\x00\x00\x00\xe7\x000A'
tRp2762
sg14
F3.3616666666666668
sg15
g2
(g75
S'\x00\x00\x00\x00\xe7\x000A'
tRp2763
ssg16
(dp2764
g13
g2
(g75
S'\x9e\xe7y\x8e\xa4kRA'
tRp2765
sg14
F5.2319184755575048
sg15
g2
(g75
S'\xe7y\x9e\xc7\xd3\xeeKA'
tRp2766
ssg18
(dp2767
g13
g2
(g75
S'y\x9e\xe7\xd1eDqA'
tRp2768
sg14
F9.6053117667892458
sg15
g2
(g75
S'!\xf7\xb7\x0e\x1e\xa1mA'
tRp2769
ssg20
(dp2770
g13
g2
(g75
S'\xcf\xf3<\xcf^\xc2WA'
tRp2771
sg14
F30.096521356206761
sg15
g2
(g75
S'*\x164\xc75AMA'
tRp2772
sssg40
(dp2773
g11
(dp2774
g13
I0
sg14
I0
sg15
I0
ssg16
(dp2775
g13
g2
(g75
S'\xab\xaa\xaa\xaa:\xfa\xf1@'
tRp2776
sg14
F0
sg15
g2
(g75
S'\xab\xaa\xaa\xaa*\xcb\xb1@'
tRp2777
ssg18
(dp2778
g13
g2
(g75
S'gff\xe6\x0e\xc0&A'
tRp2779
sg14
F0
sg15
g2
(g75
S'\x9b\x99\x99\x99\xe7w\x03A'
tRp2780
ssg20
(dp2781
g13
g2
(g75
S'\x00\x00\x00\x00@\x15\x07A'
tRp2782
sg14
F0.25
sg15
g2
(g75
S'\x00\x00\x00\x00\x00\x08\x03A'
tRp2783
sssg46
(dp2784
g11
(dp2785
g13
I0
sg14
I0
sg15
I0
ssg16
(dp2786
g13
I0
sg14
I0
sg15
I0
ssg18
(dp2787
g13
I0
sg14
I0
sg15
I0
ssg20
(dp2788
g13
I0
sg14
I0
sg15
I0
sssg52
(dp2789
g11
(dp2790
g13
g2
(g75
S'\x00\x00\x00\x00\xb0B\x1cA'
tRp2791
sg14
I0
sg15
g2
(g75
S'\x00\x00\x00\x00\x00\x00\x00\x00'
tRp2792
ssg16
(dp2793
g13
g2
(g75
S'.\xba\xe8\xa2u\xff\x03A'
tRp2794
sg14
F0
sg15
g2
(g75
S'.\xba\xe8\xa2u\xff\x03A'
tRp2795
ssg18
(dp2796
g13
g2
(g75
S'\x0bqVNm\xc0YA'
tRp2797
sg14
F0.91350295308665852
sg15
g2
(g75
S'`\xc6\xab\x83\xde{SA'
tRp2798
ssg20
(dp2799
g13
g2
(g75
S'[\xce\x9fE\xeb>UA'
tRp2800
sg14
F4.1741565355112495
sg15
g2
(g75
S'[\xce\x9f\x85\xe6\xf4QA'
tRp2801
sssg58
(dp2802
g11
(dp2803
g13
I0
sg14
I0
sg15
I0
ssg16
(dp2804
g13
I0
sg14
I0
sg15
I0
ssg18
(dp2805
g13
I0
sg14
I0
sg15
I0
ssg20
(dp2806
g13
I0
sg14
I0
sg15
I0
ssssg129
(dp2807
g9
(dp2808
g11
(dp2809
g13
I0
sg14
I0
sg15
I0
ssg16
(dp2810
g13
I0
sg14
I0
sg15
I0
ssg18
(dp2811
g13
I0
sg14
I0
sg15
I0
ssg20
(dp2812
g13
I0
sg14
I0
sg15
I0
sssg22
(dp2813
g11
(dp2814
g13
I0
sg14
I0
sg15
I0
ssg16
(dp2815
g13
I0
sg14
I0
sg15
I0
ssg18
(dp2816
g13
I0
sg14
I0
sg15
I0
ssg20
(dp2817
g13
I0
sg14
I0
sg15
I0
sssg28
(dp2818
g11
(dp2819
g13
I0
sg14
I0
sg15
I0
ssg16
(dp2820
g13
I0
sg14
I0
sg15
I0
ssg18
(dp2821
g13
I0
sg14
I0
sg15
I0
ssg20
(dp2822
g13
g2
(g75
S'\x00\x00\x000H4\x85A'
tRp2823
sg14
F0
sg15
g2
(g75
S'\x00\x00\x000H4\x85A'
tRp2824
sssg34
(dp2825
g11
(dp2826
g13
I0
sg14
I0
sg15
I0
ssg16
(dp2827
g13
I0
sg14
I0
sg15
I0
ssg18
(dp2828
g13
I0
sg14
I0
sg15
I0
ssg20
(dp2829
g13
I0
sg14
I0
sg15
I0
sssg40
(dp2830
g11
(dp2831
g13
I0
sg14
I0
sg15
I0
ssg16
(dp2832
g13
I0
sg14
I0
sg15
I0
ssg18
(dp2833
g13
I0
sg14
I0
sg15
I0
ssg20
(dp2834
g13
I0
sg14
I0
sg15
I0
sssg46
(dp2835
g11
(dp2836
g13
I0
sg14
I0
sg15
I0
ssg16
(dp2837
g13
I0
sg14
I0
sg15
I0
ssg18
(dp2838
g13
I0
sg14
I0
sg15
I0
ssg20
(dp2839
g13
I0
sg14
I0
sg15
I0
sssg52
(dp2840
g11
(dp2841
g13
I0
sg14
I0
sg15
I0
ssg16
(dp2842
g13
I0
sg14
I0
sg15
I0
ssg18
(dp2843
g13
I0
sg14
I0
sg15
I0
ssg20
(dp2844
g13
I0
sg14
I0
sg15
I0
sssg58
(dp2845
g11
(dp2846
g13
I0
sg14
I0
sg15
I0
ssg16
(dp2847
g13
I0
sg14
I0
sg15
I0
ssg18
(dp2848
g13
I0
sg14
I0
sg15
I0
ssg20
(dp2849
g13
I0
sg14
I0
sg15
I0
ssssg171
(dp2850
g9
(dp2851
g11
(dp2852
g13
g2
(g75
S'\x00\x00\x00\x80\xeaC+A'
tRp2853
sg14
F0
sg15
g2
(g75
S'VUU\xd5\xefZBA'
tRp2854
ssg16
(dp2855
g13
g2
(g75
S'\x00\x00\x00\x00\xf0C\x19A'
tRp2856
sg14
F0
sg15
g2
(g75
S'\xab\xaa\xaa\xaa\xe1P A'
tRp2857
ssg18
(dp2858
g13
g2
(g75
S'\xfe\xff\xff/R\x80kA'
tRp2859
sg14
F0
sg15
g2
(g75
S's\x1c\xc7\x11\xee}jA'
tRp2860
ssg20
(dp2861
g13
g2
(g75
S'VUUMyxkA'
tRp2862
sg14
F0
sg15
g2
(g75
S'-\xd8\x82\x89\xb6\xd2uA'
tRp2863
sssg22
(dp2864
g11
(dp2865
g13
g2
(g75
S'\x00\x00\x00\x9e\x0b\xa3\x83A'
tRp2866
sg14
F829.375
sg15
g2
(g75
S'\x00\x00\x00Zi\xa2\x80A'
tRp2867
ssg16
(dp2868
g13
I0
sg14
I0
sg15
I0
ssg18
(dp2869
g13
g2
(g75
S'TUU\xd5\xa8f=A'
tRp2870
sg14
F105.54403176680903
sg15
g2
(g75
S'\x1c\xc7q\x1c\xc54;A'
tRp2871
ssg20
(dp2872
g13
g2
(g75
S'\xab\xaa\xaa\xaaHk\rA'
tRp2873
sg14
F73.238095238095241
sg15
g2
(g75
S"\x86a\x18\x86'~\x08A"
tRp2874
sssg28
(dp2875
g11
(dp2876
g13
I0
sg14
I0
sg15
I0
ssg16
(dp2877
g13
I0
sg14
I0
sg15
I0
ssg18
(dp2878
g13
I0
sg14
I0
sg15
I0
ssg20
(dp2879
g13
g2
(g75
S'\x8f\xf0\x08\xffU\xb2\x8cA'
tRp2880
sg14
F0
sg15
g2
(g75
S'\x8f\xf0\x08[\xb7v\x8bA'
tRp2881
sssg34
(dp2882
g11
(dp2883
g13
g2
(g75
S'\xde\xdd\xdd\x08~P\x85A'
tRp2884
sg14
F376.74832949860695
sg15
g2
(g75
S'xww\x89*E\x82A'
tRp2885
ssg16
(dp2886
g13
g2
(g75
S'xL\r\xcc\xddO\x88A'
tRp2887
sg14
F283.42179341618032
sg15
g2
(g75
S'xL\r\xfc\xaf\xdd\x85A'
tRp2888
ssg18
(dp2889
g13
g2
(g75
S'\xf0\xbf\n\x86\x150\xa6A'
tRp2890
sg14
F801.5488943752008
sg15
g2
(g75
S'\xc8\xa7\xd9O:\x0c\xa3A'
tRp2891
ssg20
(dp2892
g13
g2
(g75
S'\x05\xbeT\xe6Hd\x8eA'
tRp2893
sg14
F491.41978248176696
sg15
g2
(g75
S'__\r\xb9\xb1\xbb\x89A'
tRp2894
sssg40
(dp2895
g11
(dp2896
g13
I0
sg14
I0
sg15
I0
ssg16
(dp2897
g13
g2
(g75
S'UUUu~uGA'
tRp2898
sg14
F136.02246635384859
sg15
g2
(g75
S'\xab\xaa\xaa\xea/\x92EA'
tRp2899
ssg18
(dp2900
g13
g2
(g75
S'25\xb0O\x94\xc0gA'
tRp2901
sg14
F344.96665133228487
sg15
g2
(g75
S'fh\xe3\xea\x88\x17dA'
tRp2902
ssg20
(dp2903
g13
g2
(g75
S'\xa4\xe1\x02si\x18yA'
tRp2904
sg14
F192.28506331660148
sg15
g2
(g75
S'\xf3\xbd\rH\x82;tA'
tRp2905
sssg46
(dp2906
g11
(dp2907
g13
I0
sg14
I0
sg15
I0
ssg16
(dp2908
g13
I0
sg14
I0
sg15
I0
ssg18
(dp2909
g13
I0
sg14
I0
sg15
I0
ssg20
(dp2910
g13
g2
(g75
S'UUUUU\xaa\x9c@'
tRp2911
sg14
F0
sg15
g2
(g75
S'UUUUU\xaa\x9c@'
tRp2912
sssg52
(dp2913
g11
(dp2914
g13
g2
(g75
S'(n\x85"v\x861A'
tRp2915
sg14
F0
sg15
g2
(g75
S'3\x89\x07JCC#A'
tRp2916
ssg16
(dp2917
g13
g2
(g75
S'd\xe7\xa4\xf0v\x12|A'
tRp2918
sg14
F14.745017336736277
sg15
g2
(g75
S'f\xe7\xa44\xc3\xf0zA'
tRp2919
ssg18
(dp2920
g13
g2
(g75
S'\xd3a\xb4\xc5\xd6\x07\x91A'
tRp2921
sg14
F135.65852028982295
sg15
g2
(g75
S"Z5\xbe\xa7'\x16\x90A"
tRp2922
ssg20
(dp2923
g13
g2
(g75
S'\xff\x1f\x17\xb7\xd6\xf4{A'
tRp2924
sg14
F4.1741565355112495
sg15
g2
(g75
S'`G\xea\x19\xce#wA'
tRp2925
sssg58
(dp2926
g11
(dp2927
g13
I0
sg14
I0
sg15
I0
ssg16
(dp2928
g13
g2
(g75
S'\x03\x00\x00`\x14fKA'
tRp2929
sg14
F0
sg15
g2
(g75
S"\x04\x00\x00`'\xbfJA"
tRp2930
ssg18
(dp2931
g13
g2
(g75
S'\xff\x80>\x82\xca\xc8YA'
tRp2932
sg14
F0
sg15
g2
(g75
S'1\xb4q5\xee\x06YA'
tRp2933
ssg20
(dp2934
g13
g2
(g75
S'\xf5c?\xb6\x9cs1A'
tRp2935
sg14
F0
sg15
g2
(g75
S'\xc10\x0c#q71A'
tRp2936
ssssg259
(dp2937
g9
(dp2938
g11
(dp2939
g13
I0
sg14
I0
sg15
I0
ssg16
(dp2940
g13
I0
sg14
I0
sg15
I0
ssg18
(dp2941
g13
I0
sg14
I0
sg15
I0
ssg20
(dp2942
g13
I0
sg14
I0
sg15
I0
sssg22
(dp2943
g11
(dp2944
g13
g2
(g75
S'\x00\x00\x00h\xf0\x1bzA'
tRp2945
sg14
F807.5
sg15
g2
(g75
S'\x00\x00\x00X\xe7$vA'
tRp2946
ssg16
(dp2947
g13
I0
sg14
I0
sg15
I0
ssg18
(dp2948
g13
g2
(g75
S'\x96eY\x16(\xe6*A'
tRp2949
sg14
F28.224206349206352
sg15
g2
(g75
S'%I\x92\xa4`\x82&A'
tRp2950
ssg20
(dp2951
g13
g2
(g75
S'\xab\xaa\xaa\xaahq\x03A'
tRp2952
sg14
F10.595238095238095
sg15
g2
(g75
S'\x86a\x18\x86\xb7=\x00A'
tRp2953
sssg28
(dp2954
g11
(dp2955
g13
I0
sg14
I0
sg15
I0
ssg16
(dp2956
g13
I0
sg14
I0
sg15
I0
ssg18
(dp2957
g13
I0
sg14
I0
sg15
I0
ssg20
(dp2958
g13
g2
(g75
S'EQ\x14E\xf2o_A'
tRp2959
sg14
F0
sg15
g2
(g75
S'\xef\xfb\xbe\xaf\xfbzYA'
tRp2960
sssg34
(dp2961
g11
(dp2962
g13
g2
(g75
S'\xbb\xbb\xbb\x0b\xb2\xfe|A'
tRp2963
sg14
F262.91166283194025
sg15
g2
(g75
S'\xef\xee\xee\xae\x06\xd0xA'
tRp2964
ssg16
(dp2965
g13
g2
(g75
S'/\xba\xe8&H\xff\x84A'
tRp2966
sg14
F175.27320827395616
sg15
g2
(g75
S'\xdad\x93\xf5\x08L\x83A'
tRp2967
ssg18
(dp2968
g13
g2
(g75
S'\xccvx\x91"\x19\xa1A'
tRp2969
sg14
F617.72594223360761
sg15
g2
(g75
S'V\xfb\x86\xbfv\xfd\x9cA'
tRp2970
ssg20
(dp2971
g13
g2
(g75
S'1\x89\x07\xc6\xe6:\x88A'
tRp2972
sg14
F320.23985257385777
sg15
g2
(g75
S'.7-\xe4Z\xec\x84A'
tRp2973
sssg40
(dp2974
g11
(dp2975
g13
I0
sg14
I0
sg15
I0
ssg16
(dp2976
g13
g2
(g75
S'\xab\xaa\xaaj\xabvFA'
tRp2977
sg14
F83.522466353848586
sg15
g2
(g75
S'\xab\xaa\xaaj^\x1aEA'
tRp2978
ssg18
(dp2979
g13
g2
(g75
S'vy\xf4\x83W\xe6aA'
tRp2980
sg14
F219.43887355450707
sg15
g2
(g75
S'SYONE\xfe_A'
tRp2981
ssg20
(dp2982
g13
g2
(g75
S'\xf0\xee\xee>\xbc\xb0vA'
tRp2983
sg14
F167.09157779753289
sg15
g2
(g75
S'333/*\xdfqA'
tRp2984
sssg46
(dp2985
g11
(dp2986
g13
I0
sg14
I0
sg15
I0
ssg16
(dp2987
g13
I0
sg14
I0
sg15
I0
ssg18
(dp2988
g13
I0
sg14
I0
sg15
I0
ssg20
(dp2989
g13
I0
sg14
I0
sg15
I0
sssg52
(dp2990
g11
(dp2991
g13
g2
(g75
S'\x08\x1f|\xf0\xaa\xc0\x1eA'
tRp2992
sg14
F0
sg15
g2
(g75
S'\xf1\xc1\x07\x1fj\xf6\x1bA'
tRp2993
ssg16
(dp2994
g13
g2
(g75
S'UUU\xdd\x0b\xa9`A'
tRp2995
sg14
F0
sg15
g2
(g75
S'UUU\x85%3_A'
tRp2996
ssg18
(dp2997
g13
g2
(g75
S'\xdf\xdd\xdd\x99\x12\xf9iA'
tRp2998
sg14
F120
sg15
g2
(g75
S'\xdd\xdd\xdd\x89\xc3\x90hA'
tRp2999
ssg20
(dp3000
g13
g2
(g75
S'\xde\xdd\xdd\x95v1sA'
tRp3001
sg14
F0
sg15
g2
(g75
S'\x00\x00\x00(*\xd6nA'
tRp3002
sssg58
(dp3003
g11
(dp3004
g13
I0
sg14
I0
sg15
I0
ssg16
(dp3005
g13
I0
sg14
I0
sg15
I0
ssg18
(dp3006
g13
I0
sg14
I0
sg15
I0
ssg20
(dp3007
g13
I0
sg14
I0
sg15
I0
ssssg325
(dp3008
g9
(dp3009
g11
(dp3010
g13
I0
sg14
I0
sg15
I0
ssg16
(dp3011
g13
I0
sg14
I0
sg15
I0
ssg18
(dp3012
g13
I0
sg14
I0
sg15
I0
ssg20
(dp3013
g13
I0
sg14
I0
sg15
I0
sssg22
(dp3014
g11
(dp3015
g13
I0
sg14
I0
sg15
I0
ssg16
(dp3016
g13
I0
sg14
I0
sg15
I0
ssg18
(dp3017
g13
g2
(g75
S'\x00\x00\x00\x00\x00}\xa1@'
tRp3018
sg14
F67.5
sg15
g2
(g75
S'\x00\x00\x00\x00\x00}\xa1@'
tRp3019
ssg20
(dp3020
g13
g2
(g75
S'\x00\x00\x00\x00\x00\x80G@'
tRp3021
sg14
F12.5
sg15
g2
(g75
S'\x00\x00\x00\x00\x00\x80G@'
tRp3022
sssg28
(dp3023
g11
(dp3024
g13
I0
sg14
I0
sg15
I0
ssg16
(dp3025
g13
I0
sg14
I0
sg15
I0
ssg18
(dp3026
g13
I0
sg14
I0
sg15
I0
ssg20
(dp3027
g13
g2
(g75
S'\x00\x00\x00\x00\x80M\xa9@'
tRp3028
sg14
F0
sg15
g2
(g75
S'\x00\x00\x00\x00\x80M\xa9@'
tRp3029
sssg34
(dp3030
g11
(dp3031
g13
g2
(g75
S'\x00\x00\x00\x00\xe0\x81\xd1@'
tRp3032
sg14
F107.97499999999999
sg15
g2
(g75
S'\x00\x00\x00\x00\xe0\x81\xd1@'
tRp3033
ssg16
(dp3034
g13
g2
(g75
S'\x00\x00\x00\x00\x00\xea\x99@'
tRp3035
sg14
F96.25
sg15
g2
(g75
S'\x00\x00\x00\x00\x00\xea\x99@'
tRp3036
ssg18
(dp3037
g13
g2
(g75
S'\x00\x00\x00\x00\x80\x86\xa9@'
tRp3038
sg14
F158.7248743718593
sg15
g2
(g75
S'\x00\x00\x00\x00\x80\x86\xa9@'
tRp3039
ssg20
(dp3040
g13
g2
(g75
S'\x00\x00\x00\x00\x00\x0b\xd5@'
tRp3041
sg14
F69.75
sg15
g2
(g75
S'\x00\x00\x00\x00\x00\x0b\xd5@'
tRp3042
sssg40
(dp3043
g11
(dp3044
g13
I0
sg14
I0
sg15
I0
ssg16
(dp3045
g13
g2
(g75
S'\x00\x00\x00\x00\x008\x86@'
tRp3046
sg14
F52.5
sg15
g2
(g75
S'\x00\x00\x00\x00\x008\x86@'
tRp3047
ssg18
(dp3048
g13
g2
(g75
S'\x00\x00\x00\x00\x00 \x99@'
tRp3049
sg14
F111.08333333333333
sg15
g2
(g75
S'\x00\x00\x00\x00\x00 \x99@'
tRp3050
ssg20
(dp3051
g13
g2
(g75
S'\x00\x00\x00\x00\x00\xa0{@'
tRp3052
sg14
F7.5
sg15
g2
(g75
S'\x00\x00\x00\x00\x00\xa0{@'
tRp3053
sssg46
(dp3054
g11
(dp3055
g13
I0
sg14
I0
sg15
I0
ssg16
(dp3056
g13
I0
sg14
I0
sg15
I0
ssg18
(dp3057
g13
I0
sg14
I0
sg15
I0
ssg20
(dp3058
g13
I0
sg14
I0
sg15
I0
sssg52
(dp3059
g11
(dp3060
g13
I0
sg14
I0
sg15
I0
ssg16
(dp3061
g13
g2
(g75
S'\x00\x00\x00\x00\x00<\x94@'
tRp3062
sg14
F0
sg15
g2
(g75
S'\x00\x00\x00\x00\x00<\x94@'
tRp3063
ssg18
(dp3064
g13
g2
(g75
S'\x00\x00\x00\x00\x00\xd4\xb0@'
tRp3065
sg14
F0
sg15
g2
(g75
S'\x00\x00\x00\x00\x00\xd4\xb0@'
tRp3066
ssg20
(dp3067
g13
g2
(g75
S'\x00\x00\x00\x00\x0c4\xfb@'
tRp3068
sg14
F0
sg15
g2
(g75
S'\x00\x00\x00\x00\xdc2\xfb@'
tRp3069
sssg58
(dp3070
g11
(dp3071
g13
I0
sg14
I0
sg15
I0
ssg16
(dp3072
g13
I0
sg14
I0
sg15
I0
ssg18
(dp3073
g13
I0
sg14
I0
sg15
I0
ssg20
(dp3074
g13
I0
sg14
I0
sg15
I0
ssssg367
(dp3075
g9
(dp3076
g11
(dp3077
g13
I0
sg14
I0
sg15
I0
ssg16
(dp3078
g13
I0
sg14
I0
sg15
I0
ssg18
(dp3079
g13
I0
sg14
I0
sg15
I0
ssg20
(dp3080
g13
I0
sg14
I0
sg15
I0
sssg22
(dp3081
g11
(dp3082
g13
I0
sg14
I0
sg15
I0
ssg16
(dp3083
g13
I0
sg14
I0
sg15
I0
ssg18
(dp3084
g13
I0
sg14
I0
sg15
I0
ssg20
(dp3085
g13
I0
sg14
I0
sg15
I0
sssg28
(dp3086
g11
(dp3087
g13
I0
sg14
I0
sg15
I0
ssg16
(dp3088
g13
I0
sg14
I0
sg15
I0
ssg18
(dp3089
g13
I0
sg14
I0
sg15
I0
ssg20
(dp3090
g13
I0
sg14
I0
sg15
I0
sssg34
(dp3091
g11
(dp3092
g13
I0
sg14
I0
sg15
I0
ssg16
(dp3093
g13
g2
(g75
S'\x00\x00\x00\x00 \xf6\xe0@'
tRp3094
sg14
F5.416666666666667
sg15
g2
(g75
S'UUUU\xbd\xe3\xe0@'
tRp3095
ssg18
(dp3096
g13
g2
(g75
S'\xfe\xff\xff\x7f(\xa82A'
tRp3097
sg14
F6.9460184405590635
sg15
g2
(g75
S'\xfe\xff\xff\xbf\xdao2A'
tRp3098
ssg20
(dp3099
g13
g2
(g75
S'\xcc\xb2,K\xa3@\x12A'
tRp3100
sg14
F44.961811695131999
sg15
g2
(g75
S'F\x85TH\x17\x8b\x0fA'
tRp3101
sssg40
(dp3102
g11
(dp3103
g13
I0
sg14
I0
sg15
I0
ssg16
(dp3104
g13
g2
(g75
S'UUUUmg\xeb@'
tRp3105
sg14
F0
sg15
g2
(g75
S'\xab\xaa\xaa\xaa\x1ab\xeb@'
tRp3106
ssg18
(dp3107
g13
g2
(g75
S'\xaa\xaa\xaa\xaa\xec\xd0\x0cA'
tRp3108
sg14
F14.444444444444443
sg15
g2
(g75
S'\xa9\xaa\xaa\xaaF{\x08A'
tRp3109
ssg20
(dp3110
g13
g2
(g75
S'\x9e\x95\x9f\xa08\xcbAA'
tRp3111
sg14
F17.443485519068581
sg15
g2
(g75
S'\x01V\xd4\xc6c\xb1AA'
tRp3112
sssg46
(dp3113
g11
(dp3114
g13
I0
sg14
I0
sg15
I0
ssg16
(dp3115
g13
I0
sg14
I0
sg15
I0
ssg18
(dp3116
g13
I0
sg14
I0
sg15
I0
ssg20
(dp3117
g13
g2
(g75
S'UUUUU\xaa\x9c@'
tRp3118
sg14
F0
sg15
g2
(g75
S'UUUUU\xaa\x9c@'
tRp3119
sssg52
(dp3120
g11
(dp3121
g13
g2
(g75
S'3333\xfb,\x06A'
tRp3122
sg14
F0
sg15
g2
(g75
S'\xea\xa0\x0e\xea8 \x05A'
tRp3123
ssg16
(dp3124
g13
g2
(g75
S'\xf0\x15_-\xc3\x0bpA'
tRp3125
sg14
F14.745017336736277
sg15
g2
(g75
S':\x81\x13\xe8\x16<oA'
tRp3126
ssg18
(dp3127
g13
g2
(g75
S'\r~&;\xc4g\x83A'
tRp3128
sg14
F14.745017336736277
sg15
g2
(g75
S'\x1b%:KG\x07\x83A'
tRp3129
ssg20
(dp3130
g13
g2
(g75
S'\x7f\xa7\xbd\xd1@;JA'
tRp3131
sg14
F0
sg15
g2
(g75
S't\xd1E\xf7\x1azHA'
tRp3132
sssg58
(dp3133
g11
(dp3134
g13
I0
sg14
I0
sg15
I0
ssg16
(dp3135
g13
g2
(g75
S'\x03\x00\x00`\x14fKA'
tRp3136
sg14
F0
sg15
g2
(g75
S"\x04\x00\x00`'\xbfJA"
tRp3137
ssg18
(dp3138
g13
g2
(g75
S'\xff\x80>\x82\xca\xc8YA'
tRp3139
sg14
F0
sg15
g2
(g75
S'1\xb4q5\xee\x06YA'
tRp3140
ssg20
(dp3141
g13
g2
(g75
S'\xf5c?\xb6\x9cs1A'
tRp3142
sg14
F0
sg15
g2
(g75
S'\xc10\x0c#q71A'
tRp3143
ssssg445
(dp3144
g9
(dp3145
g11
(dp3146
g13
g2
(g75
S'\x00\x00\x00\x80\xeaC+A'
tRp3147
sg14
F0
sg15
g2
(g75
S'VUU\xd5\xefZBA'
tRp3148
ssg16
(dp3149
g13
g2
(g75
S'\x00\x00\x00\x00\xf0C\x19A'
tRp3150
sg14
F0
sg15
g2
(g75
S'\xab\xaa\xaa\xaa\xe1P A'
tRp3151
ssg18
(dp3152
g13
g2
(g75
S'\xfe\xff\xff/R\x80kA'
tRp3153
sg14
F0
sg15
g2
(g75
S's\x1c\xc7\x11\xee}jA'
tRp3154
ssg20
(dp3155
g13
g2
(g75
S'VUUMyxkA'
tRp3156
sg14
F0
sg15
g2
(g75
S'-\xd8\x82\x89\xb6\xd2uA'
tRp3157
sssg22
(dp3158
g11
(dp3159
g13
I0
sg14
I0
sg15
I0
ssg16
(dp3160
g13
I0
sg14
I0
sg15
I0
ssg18
(dp3161
g13
I0
sg14
I0
sg15
I0
ssg20
(dp3162
g13
I0
sg14
I0
sg15
I0
sssg28
(dp3163
g11
(dp3164
g13
I0
sg14
I0
sg15
I0
ssg16
(dp3165
g13
I0
sg14
I0
sg15
I0
ssg18
(dp3166
g13
I0
sg14
I0
sg15
I0
ssg20
(dp3167
g13
g2
(g75
S'\x00\x00\x00\x00\x10\xea\xf4@'
tRp3168
sg14
F0
sg15
g2
(g75
S'\x00\x00\x00\x00\xe0\xc9\x08A'
tRp3169
sssg34
(dp3170
g11
(dp3171
g13
I0
sg14
I0
sg15
I0
ssg16
(dp3172
g13
I0
sg14
I0
sg15
I0
ssg18
(dp3173
g13
I0
sg14
I0
sg15
I0
ssg20
(dp3174
g13
I0
sg14
I0
sg15
I0
sssg40
(dp3175
g11
(dp3176
g13
I0
sg14
I0
sg15
I0
ssg16
(dp3177
g13
I0
sg14
I0
sg15
I0
ssg18
(dp3178
g13
I0
sg14
I0
sg15
I0
ssg20
(dp3179
g13
I0
sg14
I0
sg15
I0
sssg46
(dp3180
g11
(dp3181
g13
I0
sg14
I0
sg15
I0
ssg16
(dp3182
g13
I0
sg14
I0
sg15
I0
ssg18
(dp3183
g13
I0
sg14
I0
sg15
I0
ssg20
(dp3184
g13
I0
sg14
I0
sg15
I0
sssg52
(dp3185
g11
(dp3186
g13
I0
sg14
I0
sg15
I0
ssg16
(dp3187
g13
I0
sg14
I0
sg15
I0
ssg18
(dp3188
g13
I0
sg14
I0
sg15
I0
ssg20
(dp3189
g13
I0
sg14
I0
sg15
I0
sssg58
(dp3190
g11
(dp3191
g13
I0
sg14
I0
sg15
I0
ssg16
(dp3192
g13
I0
sg14
I0
sg15
I0
ssg18
(dp3193
g13
I0
sg14
I0
sg15
I0
ssg20
(dp3194
g13
I0
sg14
I0
sg15
I0
ssssg495
(dp3195
g9
(dp3196
g11
(dp3197
g13
I0
sg14
I0
sg15
I0
ssg16
(dp3198
g13
I0
sg14
I0
sg15
I0
ssg18
(dp3199
g13
I0
sg14
I0
sg15
I0
ssg20
(dp3200
g13
I0
sg14
I0
sg15
I0
sssg22
(dp3201
g11
(dp3202
g13
g2
(g75
S'\x00\x00\x00H8\x1cjA'
tRp3203
sg14
F8.75
sg15
g2
(g75
S'\x00\x00\x008/%fA'
tRp3204
ssg16
(dp3205
g13
I0
sg14
I0
sg15
I0
ssg18
(dp3206
g13
I0
sg14
I0
sg15
I0
ssg20
(dp3207
g13
I0
sg14
I0
sg15
I0
sssg28
(dp3208
g11
(dp3209
g13
I0
sg14
I0
sg15
I0
ssg16
(dp3210
g13
I0
sg14
I0
sg15
I0
ssg18
(dp3211
g13
I0
sg14
I0
sg15
I0
ssg20
(dp3212
g13
g2
(g75
S'www\xd7\x04\x8aDA'
tRp3213
sg14
F0
sg15
g2
(g75
S'www\x97\x80\x87CA'
tRp3214
sssg34
(dp3215
g11
(dp3216
g13
g2
(g75
S'\x00\x00\x00<\xb6;iA'
tRp3217
sg14
F2.5
sg15
g2
(g75
S'\x00\x00\x00\xf8\xbekeA'
tRp3218
ssg16
(dp3219
g13
g2
(g75
S'\xab\xaa\xaa\xea\xf6\xd5?A'
tRp3220
sg14
F1.25
sg15
g2
(g75
S'UUU\xd5\xa0\xc99A'
tRp3221
ssg18
(dp3222
g13
g2
(g75
S'\xaa\xaa\xaa\x16\xe3GvA'
tRp3223
sg14
F8.5467475623855975
sg15
g2
(g75
S'VUU\x99\x9estA'
tRp3224
ssg20
(dp3225
g13
g2
(g75
S'\x9f\xe7y\xfe\x9cOXA'
tRp3226
sg14
F26.371596856570417
sg15
g2
(g75
S'J\x92$\t\xb8\xc8VA'
tRp3227
sssg40
(dp3228
g11
(dp3229
g13
I0
sg14
I0
sg15
I0
ssg16
(dp3230
g13
I0
sg14
I0
sg15
I0
ssg18
(dp3231
g13
g2
(g75
S'UUUUy\xd1?A'
tRp3232
sg14
F0
sg15
g2
(g75
S'UUUU\x84>;A'
tRp3233
ssg20
(dp3234
g13
g2
(g75
S'\x00\x00\x00\x00\x00\x00\x00\x00'
tRp3235
sg14
I0
sg15
g2
(g75
S'\x00\x00\x00\x00\x00\x00\x00\x00'
tRp3236
sssg46
(dp3237
g11
(dp3238
g13
I0
sg14
I0
sg15
I0
ssg16
(dp3239
g13
I0
sg14
I0
sg15
I0
ssg18
(dp3240
g13
I0
sg14
I0
sg15
I0
ssg20
(dp3241
g13
I0
sg14
I0
sg15
I0
sssg52
(dp3242
g11
(dp3243
g13
I0
sg14
I0
sg15
I0
ssg16
(dp3244
g13
g2
(g75
S'\xab\xaa\xaa\xca\xefNLA'
tRp3245
sg14
F0
sg15
g2
(g75
S'\x00\x00\x00 \xf4\xecJA'
tRp3246
ssg18
(dp3247
g13
g2
(g75
S'\x00\x00\x00\x80A\xc4cA'
tRp3248
sg14
F0
sg15
g2
(g75
S'VUU\xc5RCbA'
tRp3249
ssg20
(dp3250
g13
g2
(g75
S'\x9a\x99\x99\x99)\t\xf1@'
tRp3251
sg14
F0
sg15
g2
(g75
S'\x9a\x99\x99\x99)\t\xf1@'
tRp3252
sssg58
(dp3253
g11
(dp3254
g13
I0
sg14
I0
sg15
I0
ssg16
(dp3255
g13
I0
sg14
I0
sg15
I0
ssg18
(dp3256
g13
I0
sg14
I0
sg15
I0
ssg20
(dp3257
g13
I0
sg14
I0
sg15
I0
sssssg2
(g4
S'\xdc\x07\x00\x00\x00\x00\x00\x00'
tRp3258
(dp3259
g7
(dp3260
g9
(dp3261
g11
(dp3262
g13
I0
sg14
I0
sg15
I0
ssg16
(dp3263
g13
I0
sg14
I0
sg15
I0
ssg18
(dp3264
g13
I0
sg14
I0
sg15
I0
ssg20
(dp3265
g13
I0
sg14
I0
sg15
I0
sssg22
(dp3266
g11
(dp3267
g13
I0
sg14
I0
sg15
I0
ssg16
(dp3268
g13
I0
sg14
I0
sg15
I0
ssg18
(dp3269
g13
I0
sg14
I0
sg15
I0
ssg20
(dp3270
g13
I0
sg14
I0
sg15
I0
sssg28
(dp3271
g11
(dp3272
g13
I0
sg14
I0
sg15
I0
ssg16
(dp3273
g13
I0
sg14
I0
sg15
I0
ssg18
(dp3274
g13
I0
sg14
I0
sg15
I0
ssg20
(dp3275
g13
I0
sg14
I0
sg15
I0
sssg34
(dp3276
g11
(dp3277
g13
I0
sg14
I0
sg15
I0
ssg16
(dp3278
g13
I0
sg14
I0
sg15
I0
ssg18
(dp3279
g13
g2
(g75
S'\xab\xaa\xaa\xaa)2,A'
tRp3280
sg14
F5
sg15
g2
(g75
S'\xab\xaa\xaa\xaa)2,A'
tRp3281
ssg20
(dp3282
g13
g2
(g75
S'\x00\x00\x00\x00\x00\x1e\x91@'
tRp3283
sg14
F0
sg15
g2
(g75
S'\x00\x00\x00\x00\x00\x1e\x91@'
tRp3284
sssg40
(dp3285
g11
(dp3286
g13
g2
(g75
S'\x00\x00\x00\x00\x94\x8d!A'
tRp3287
sg14
F0
sg15
g2
(g75
S'\x00\x00\x00\x00\x94\x8d!A'
tRp3288
ssg16
(dp3289
g13
I0
sg14
I0
sg15
I0
ssg18
(dp3290
g13
I0
sg14
I0
sg15
I0
ssg20
(dp3291
g13
g2
(g75
S'\xb7m\xdb\xb6\xed\xcb\xc6@'
tRp3292
sg14
F0
sg15
g2
(g75
S'\xb7m\xdb\xb6\xed\xcb\xc6@'
tRp3293
sssg46
(dp3294
g11
(dp3295
g13
I0
sg14
I0
sg15
I0
ssg16
(dp3296
g13
I0
sg14
I0
sg15
I0
ssg18
(dp3297
g13
g2
(g75
S'UUUU\xe5\xac\xdc@'
tRp3298
sg14
F0
sg15
g2
(g75
S'UUUU\xe5\xac\xdc@'
tRp3299
ssg20
(dp3300
g13
I0
sg14
I0
sg15
I0
sssg52
(dp3301
g11
(dp3302
g13
I0
sg14
I0
sg15
I0
ssg16
(dp3303
g13
g2
(g75
S'UUU\x95n0cA'
tRp3304
sg14
F0
sg15
g2
(g75
S'UUU\x95n0cA'
tRp3305
ssg18
(dp3306
g13
g2
(g75
S'UUU\xb5t\xb3aA'
tRp3307
sg14
F0
sg15
g2
(g75
S'UUU\xb5t\xb3aA'
tRp3308
ssg20
(dp3309
g13
g2
(g75
S'\xcd\xcc\xcc\xcc\xe4&*A'
tRp3310
sg14
F0
sg15
g2
(g75
S'\xcd\xcc\xcc\xcc\xe4&*A'
tRp3311
sssg58
(dp3312
g11
(dp3313
g13
I0
sg14
I0
sg15
I0
ssg16
(dp3314
g13
g2
(g75
S'UUUU7\x9cCA'
tRp3315
sg14
F0
sg15
g2
(g75
S'UUUU7\x9cCA'
tRp3316
ssg18
(dp3317
g13
g2
(g75
S'433\xd3T+nA'
tRp3318
sg14
F0
sg15
g2
(g75
S'433\xd3T+nA'
tRp3319
ssg20
(dp3320
g13
g2
(g75
S'\xde\xdd\xdd\x1d\xd73:A'
tRp3321
sg14
F0
sg15
g2
(g75
S'\xde\xdd\xdd\x1d\xd73:A'
tRp3322
ssssg64
(dp3323
g9
(dp3324
g11
(dp3325
g13
I0
sg14
I0
sg15
I0
ssg16
(dp3326
g13
I0
sg14
I0
sg15
I0
ssg18
(dp3327
g13
I0
sg14
I0
sg15
I0
ssg20
(dp3328
g13
I0
sg14
I0
sg15
I0
sssg22
(dp3329
g11
(dp3330
g13
I0
sg14
I0
sg15
I0
ssg16
(dp3331
g13
I0
sg14
I0
sg15
I0
ssg18
(dp3332
g13
g2
(g75
S"UUUUG\xee'A"
tRp3333
sg14
F2.6921644840226664
sg15
g2
(g75
S"UUUUG\xee'A"
tRp3334
ssg20
(dp3335
g13
g2
(g75
S'UUUU\x15n\xba@'
tRp3336
sg14
F0.083333333333333329
sg15
g2
(g75
S'UUUU\x15n\xba@'
tRp3337
sssg28
(dp3338
g11
(dp3339
g13
I0
sg14
I0
sg15
I0
ssg16
(dp3340
g13
I0
sg14
I0
sg15
I0
ssg18
(dp3341
g13
I0
sg14
I0
sg15
I0
ssg20
(dp3342
g13
g2
(g75
S'\x13\xc8\x0c\xabC\x99[A'
tRp3343
sg14
F0
sg15
g2
(g75
S'\x13\xc8\x0c+\x98Z[A'
tRp3344
sssg34
(dp3345
g11
(dp3346
g13
g2
(g75
S"'\x9bl\xb2?\xf6\x1dA"
tRp3347
sg14
F2.0594717684801163
sg15
g2
(g75
S"'\x9bl\xb2?\xf6\x1dA"
tRp3348
ssg16
(dp3349
g13
g2
(g75
S'\xab\xaa\xaa\xca\x8d\xbe]A'
tRp3350
sg14
F8.5403114872061643
sg15
g2
(g75
S'\xe48\x8e\x03\xa6,]A'
tRp3351
ssg18
(dp3352
g13
g2
(g75
S'R\x1f\x98\x91m>uA'
tRp3353
sg14
F19.765447873294228
sg15
g2
(g75
S'\xa8t\xed\x92\x1d\x1buA'
tRp3354
ssg20
(dp3355
g13
g2
(g75
S'\x87E\xfbOfg]A'
tRp3356
sg14
F14.696263853938895
sg15
g2
(g75
S'\x87E\xfb\xcf\x12/]A'
tRp3357
sssg40
(dp3358
g11
(dp3359
g13
I0
sg14
I0
sg15
I0
ssg16
(dp3360
g13
g2
(g75
S'\x00\x00\x00\x00`\x93\xf1@'
tRp3361
sg14
F0.088598864039758612
sg15
g2
(g75
S'\x00\x00\x00\x00`\x93\xf1@'
tRp3362
ssg18
(dp3363
g13
g2
(g75
S'\xab\xaa\xaa\xaa,5\x0eA'
tRp3364
sg14
F0.58859886403975858
sg15
g2
(g75
S'\xab\xaa\xaa\xaa,5\x0eA'
tRp3365
ssg20
(dp3366
g13
g2
(g75
S'\xab\xaa\xaa\xaa\xaa\xf4\xc1@'
tRp3367
sg14
F0
sg15
g2
(g75
S'\xab\xaa\xaa\xaa\xaa\xf4\xc1@'
tRp3368
sssg46
(dp3369
g11
(dp3370
g13
I0
sg14
I0
sg15
I0
ssg16
(dp3371
g13
I0
sg14
I0
sg15
I0
ssg18
(dp3372
g13
I0
sg14
I0
sg15
I0
ssg20
(dp3373
g13
I0
sg14
I0
sg15
I0
sssg52
(dp3374
g11
(dp3375
g13
g2
(g75
S'\x00\x00\x00\x00\xa8K\xf4@'
tRp3376
sg14
F0.57499999999999996
sg15
g2
(g75
S'\x00\x00\x00\x00\xa8K\xf4@'
tRp3377
ssg16
(dp3378
g13
g2
(g75
S'\xab\xaa\xaa\xaab\xeb\x10A'
tRp3379
sg14
F0
sg15
g2
(g75
S'\xab\xaa\xaa\xaab\xeb\x10A'
tRp3380
ssg18
(dp3381
g13
g2
(g75
S'>\x97\xb9\xa0A&VA'
tRp3382
sg14
F0.38795722756795686
sg15
g2
(g75
S'>\x97\xb9 \x96\xe7UA'
tRp3383
ssg20
(dp3384
g13
g2
(g75
S'+=\xa4I\xe5\xa6BA'
tRp3385
sg14
F0.88565787028258014
sg15
g2
(g75
S'+=\xa4I\xe5\xa6BA'
tRp3386
sssg58
(dp3387
g11
(dp3388
g13
I0
sg14
I0
sg15
I0
ssg16
(dp3389
g13
I0
sg14
I0
sg15
I0
ssg18
(dp3390
g13
I0
sg14
I0
sg15
I0
ssg20
(dp3391
g13
I0
sg14
I0
sg15
I0
ssssg129
(dp3392
g9
(dp3393
g11
(dp3394
g13
I0
sg14
I0
sg15
I0
ssg16
(dp3395
g13
I0
sg14
I0
sg15
I0
ssg18
(dp3396
g13
I0
sg14
I0
sg15
I0
ssg20
(dp3397
g13
I0
sg14
I0
sg15
I0
sssg22
(dp3398
g11
(dp3399
g13
I0
sg14
I0
sg15
I0
ssg16
(dp3400
g13
I0
sg14
I0
sg15
I0
ssg18
(dp3401
g13
I0
sg14
I0
sg15
I0
ssg20
(dp3402
g13
I0
sg14
I0
sg15
I0
sssg28
(dp3403
g11
(dp3404
g13
I0
sg14
I0
sg15
I0
ssg16
(dp3405
g13
I0
sg14
I0
sg15
I0
ssg18
(dp3406
g13
I0
sg14
I0
sg15
I0
ssg20
(dp3407
g13
g2
(g75
S'\x00\x00\x000H4\x85A'
tRp3408
sg14
F0
sg15
g2
(g75
S'\x00\x00\x000H4\x85A'
tRp3409
sssg34
(dp3410
g11
(dp3411
g13
I0
sg14
I0
sg15
I0
ssg16
(dp3412
g13
I0
sg14
I0
sg15
I0
ssg18
(dp3413
g13
I0
sg14
I0
sg15
I0
ssg20
(dp3414
g13
I0
sg14
I0
sg15
I0
sssg40
(dp3415
g11
(dp3416
g13
I0
sg14
I0
sg15
I0
ssg16
(dp3417
g13
I0
sg14
I0
sg15
I0
ssg18
(dp3418
g13
I0
sg14
I0
sg15
I0
ssg20
(dp3419
g13
I0
sg14
I0
sg15
I0
sssg46
(dp3420
g11
(dp3421
g13
I0
sg14
I0
sg15
I0
ssg16
(dp3422
g13
I0
sg14
I0
sg15
I0
ssg18
(dp3423
g13
I0
sg14
I0
sg15
I0
ssg20
(dp3424
g13
I0
sg14
I0
sg15
I0
sssg52
(dp3425
g11
(dp3426
g13
I0
sg14
I0
sg15
I0
ssg16
(dp3427
g13
I0
sg14
I0
sg15
I0
ssg18
(dp3428
g13
I0
sg14
I0
sg15
I0
ssg20
(dp3429
g13
I0
sg14
I0
sg15
I0
sssg58
(dp3430
g11
(dp3431
g13
I0
sg14
I0
sg15
I0
ssg16
(dp3432
g13
I0
sg14
I0
sg15
I0
ssg18
(dp3433
g13
I0
sg14
I0
sg15
I0
ssg20
(dp3434
g13
I0
sg14
I0
sg15
I0
ssssg171
(dp3435
g9
(dp3436
g11
(dp3437
g13
g2
(g75
S'\x00\x00\x00\x008\xa0#A'
tRp3438
sg14
F0
sg15
g2
(g75
S'\x00\x00\x00\x00\x04!\x1cA'
tRp3439
ssg16
(dp3440
g13
g2
(g75
S'\xab\xaa\xaa\xaa*\xab\x1aA'
tRp3441
sg14
F0
sg15
g2
(g75
S'\xab\xaa\xaa\xaa\xaci\x08A'
tRp3442
ssg18
(dp3443
g13
g2
(g75
S'\xff\xff\xff\xcf\x08\xfekA'
tRp3444
sg14
F0
sg15
g2
(g75
S'\x0f>\xf8\x80\xb7\x8fiA'
tRp3445
ssg20
(dp3446
g13
g2
(g75
S'^\xd7u\x13(\tpA'
tRp3447
sg14
F0
sg15
g2
(g75
S'Y\x96e\xc5\xac\xcatA'
tRp3448
sssg22
(dp3449
g11
(dp3450
g13
g2
(g75
S'\x00\x00\x00\x00\x00\xa8\x9a@'
tRp3451
sg14
F5.4545454545454541
sg15
g2
(g75
S'\x00\x00\x00\x00\x00\xa8\x9a@'
tRp3452
ssg16
(dp3453
g13
I0
sg14
I0
sg15
I0
ssg18
(dp3454
g13
g2
(g75
S'\xb6m\xdb6\xd4b.A'
tRp3455
sg14
F30.876688293546472
sg15
g2
(g75
S'0\x0c\xc30\x1e\x8f+A'
tRp3456
ssg20
(dp3457
g13
g2
(g75
S'\x01\x00\x00\x00n!\x04A'
tRp3458
sg14
F21.016209577370823
sg15
g2
(g75
S'\xab\xaa\xaa\xaa:\xed\x00A'
tRp3459
sssg28
(dp3460
g11
(dp3461
g13
I0
sg14
I0
sg15
I0
ssg16
(dp3462
g13
I0
sg14
I0
sg15
I0
ssg18
(dp3463
g13
I0
sg14
I0
sg15
I0
ssg20
(dp3464
g13
g2
(g75
S'\xdd\x17\x95\xae\t\x17\x90A'
tRp3465
sg14
F0
sg15
g2
(g75
S'\x0e\x08;+9g\x8fA'
tRp3466
sssg34
(dp3467
g11
(dp3468
g13
g2
(g75
S'\xda\x0e\xbf\x12\xe2i\x8bA'
tRp3469
sg14
F316.73119189705574
sg15
g2
(g75
S'/d\x14\xe6\xb6\xc2\x87A'
tRp3470
ssg16
(dp3471
g13
g2
(g75
S'\xe3\x83\x8f\xcb^\xe7\x90A'
tRp3472
sg14
F469.07482757424668
sg15
g2
(g75
S'\xd1\x90\x98\x1d\xd6Z\x8eA'
tRp3473
ssg18
(dp3474
g13
g2
(g75
S'\xe7\xaf\x9b\xe5\x95[\xa7A'
tRp3475
sg14
F776.47766557232922
sg15
g2
(g75
S'9\xef\n$qj\xa4A'
tRp3476
ssg20
(dp3477
g13
g2
(g75
S'=_\x7f$,f\x8bA'
tRp3478
sg14
F308.39044416723283
sg15
g2
(g75
S'\x8aA\x01\xb9<\x92\x88A'
tRp3479
sssg40
(dp3480
g11
(dp3481
g13
g2
(g75
S'\xaa\xaa\xaa*U\x03(A'
tRp3482
sg14
F0
sg15
g2
(g75
S"\x00\x00\x00\x80\xa3\xd1'A"
tRp3483
ssg16
(dp3484
g13
g2
(g75
S'\x01\x00\x00\x80\x91\x8bCA'
tRp3485
sg14
F74.891540278398963
sg15
g2
(g75
S'\x01\x00\x00\x00~XBA'
tRp3486
ssg18
(dp3487
g13
g2
(g75
S'\xe9\xa2\x8b.\xa8TeA'
tRp3488
sg14
F251.77912931628344
sg15
g2
(g75
S'>\xf8\xe0;)\xb6bA'
tRp3489
ssg20
(dp3490
g13
g2
(g75
S'9\x1c\xf2\xf3e\xf7dA'
tRp3491
sg14
F112.54971491625722
sg15
g2
(g75
S'<\xb3\xd6F\xe2@aA'
tRp3492
sssg46
(dp3493
g11
(dp3494
g13
I0
sg14
I0
sg15
I0
ssg16
(dp3495
g13
I0
sg14
I0
sg15
I0
ssg18
(dp3496
g13
g2
(g75
S'\xaa\xaa\xaa\xaa\xaaG\xee@'
tRp3497
sg14
F0
sg15
g2
(g75
S'\x00\x00\x00\x00\x10=\xee@'
tRp3498
ssg20
(dp3499
g13
I0
sg14
I0
sg15
I0
sssg52
(dp3500
g11
(dp3501
g13
g2
(g75
S'\x00\x00\x00\x80q\tAA'
tRp3502
sg14
F0.57499999999999996
sg15
g2
(g75
S'"""\x82\xe3\x17@A'
tRp3503
ssg16
(dp3504
g13
g2
(g75
S"\xcd\xcc\xcc'\xe8\xdd\x83A"
tRp3505
sg14
F14.166666666666666
sg15
g2
(g75
S'"""\xd9[6\x83A'
tRp3506
ssg18
(dp3507
g13
g2
(g75
S'\xdc\xfbwE\x04,\x93A'
tRp3508
sg14
F514.55462389423462
sg15
g2
(g75
S'\r\x89y$\x89\xd4\x91A'
tRp3509
ssg20
(dp3510
g13
g2
(g75
S'l\xdb\xb6\xef4axA'
tRp3511
sg14
F103.3679878784133
sg15
g2
(g75
S'\xbe\xe0\xae\xbf]\xc7tA'
tRp3512
sssg58
(dp3513
g11
(dp3514
g13
I0
sg14
I0
sg15
I0
ssg16
(dp3515
g13
g2
(g75
S'\x12\x11\x11Q\x1e\xfb`A'
tRp3516
sg14
F0
sg15
g2
(g75
S'\xce\xcc\xcc|\xa1Z`A'
tRp3517
ssg18
(dp3518
g13
g2
(g75
S'\xf8c?zq{\x82A'
tRp3519
sg14
F0
sg15
g2
(g75
S'\x92\xfd\xd8?\xd1%\x82A'
tRp3520
ssg20
(dp3521
g13
g2
(g75
S'\xd64M\xdb>Z_A'
tRp3522
sg14
F0
sg15
g2
(g75
S'\xfe\xb1\x1f\x9b\n\x83]A'
tRp3523
ssssg259
(dp3524
g9
(dp3525
g11
(dp3526
g13
I0
sg14
I0
sg15
I0
ssg16
(dp3527
g13
I0
sg14
I0
sg15
I0
ssg18
(dp3528
g13
I0
sg14
I0
sg15
I0
ssg20
(dp3529
g13
I0
sg14
I0
sg15
I0
sssg22
(dp3530
g11
(dp3531
g13
g2
(g75
S'\x00\x00\x00\x00\x00\xa8\x9a@'
tRp3532
sg14
F5.4545454545454541
sg15
g2
(g75
S'\x00\x00\x00\x00\x00\xa8\x9a@'
tRp3533
ssg16
(dp3534
g13
I0
sg14
I0
sg15
I0
ssg18
(dp3535
g13
g2
(g75
S'\x86a\x18\x86\x91\xa8\tA'
tRp3536
sg14
F24.017857142857139
sg15
g2
(g75
S'\xdb\xb6m\xdbr\xb3\xfc@'
tRp3537
ssg20
(dp3538
g13
g2
(g75
S'VUUUuL\x03A'
tRp3539
sg14
F8.4328762440374909
sg15
g2
(g75
S'\x00\x00\x00\x00B\x18\x00A'
tRp3540
sssg28
(dp3541
g11
(dp3542
g13
I0
sg14
I0
sg15
I0
ssg16
(dp3543
g13
I0
sg14
I0
sg15
I0
ssg18
(dp3544
g13
I0
sg14
I0
sg15
I0
ssg20
(dp3545
g13
g2
(g75
S's)\x97\x92\xa56fA'
tRp3546
sg14
F0
sg15
g2
(g75
S'\xf5c?\xbe\xbdncA'
tRp3547
sssg34
(dp3548
g11
(dp3549
g13
g2
(g75
S'UUUq\xfb\xe6\x82A'
tRp3550
sg14
F260.31571353626151
sg15
g2
(g75
S'UUU\xe32c\x80A'
tRp3551
ssg16
(dp3552
g13
g2
(g75
S'p\xb2\xc9\x99\xb7\xde\x8cA'
tRp3553
sg14
F340.90740244883403
sg15
g2
(g75
S'_t\xd1G3\xb8\x89A'
tRp3554
ssg18
(dp3555
g13
g2
(g75
S'\x0f\xca\xc9\xee\xacq\xa2A'
tRp3556
sg14
F581.18986640283094
sg15
g2
(g75
S'Q\xf6\xaa\x00MU\x9fA'
tRp3557
ssg20
(dp3558
g13
g2
(g75
S'c\xde\xceH\xa3\xac\x84A'
tRp3559
sg14
F199.58879617370607
sg15
g2
(g75
S'\x05\x16\xa6\x04U\x02\x82A'
tRp3560
sssg40
(dp3561
g11
(dp3562
g13
I0
sg14
I0
sg15
I0
ssg16
(dp3563
g13
g2
(g75
S'\xab\xaa\xaa\xea3\xf3BA'
tRp3564
sg14
F46.563120251458955
sg15
g2
(g75
S'\xab\xaa\xaaj \xc0AA'
tRp3565
ssg18
(dp3566
g13
g2
(g75
S'\xab\xaa\xaazk\x84`A'
tRp3567
sg14
F147.07192141055555
sg15
g2
(g75
S'\xff\xff\xff?\xdc#]A'
tRp3568
ssg20
(dp3569
g13
g2
(g75
S'\xecH\xbdN|\x81dA'
tRp3570
sg14
F102.54023022163123
sg15
g2
(g75
S'\xef\xdf\xa1\xe1\xfb\xd7`A'
tRp3571
sssg46
(dp3572
g11
(dp3573
g13
I0
sg14
I0
sg15
I0
ssg16
(dp3574
g13
I0
sg14
I0
sg15
I0
ssg18
(dp3575
g13
I0
sg14
I0
sg15
I0
ssg20
(dp3576
g13
I0
sg14
I0
sg15
I0
sssg52
(dp3577
g11
(dp3578
g13
g2
(g75
S'UUU\x95\x94\xfc:A'
tRp3579
sg14
F0
sg15
g2
(g75
S'\xee\xee\xee.\x00\xd39A'
tRp3580
ssg16
(dp3581
g13
g2
(g75
S'\x00\x00\x00\xa0\xbd\x04aA'
tRp3582
sg14
F0
sg15
g2
(g75
S'\x00\x00\x00\xf0z\xe8_A'
tRp3583
ssg18
(dp3584
g13
g2
(g75
S"<\xf8\xe0'\xc7T{A"
tRp3585
sg14
F250
sg15
g2
(g75
S'U\x82<\xa9\xd3\x84wA'
tRp3586
ssg20
(dp3587
g13
g2
(g75
S'\xaa\xaa\xaanRksA'
tRp3588
sg14
F102.48233000813072
sg15
g2
(g75
S'UUUm\x95\xd6oA'
tRp3589
sssg58
(dp3590
g11
(dp3591
g13
I0
sg14
I0
sg15
I0
ssg16
(dp3592
g13
I0
sg14
I0
sg15
I0
ssg18
(dp3593
g13
I0
sg14
I0
sg15
I0
ssg20
(dp3594
g13
I0
sg14
I0
sg15
I0
ssssg325
(dp3595
g9
(dp3596
g11
(dp3597
g13
I0
sg14
I0
sg15
I0
ssg16
(dp3598
g13
I0
sg14
I0
sg15
I0
ssg18
(dp3599
g13
I0
sg14
I0
sg15
I0
ssg20
(dp3600
g13
I0
sg14
I0
sg15
I0
sssg22
(dp3601
g11
(dp3602
g13
I0
sg14
I0
sg15
I0
ssg16
(dp3603
g13
I0
sg14
I0
sg15
I0
ssg18
(dp3604
g13
g2
(g75
S'\x00\x00\x00\x00\x00\xd1\x94@'
tRp3605
sg14
F4.166666666666667
sg15
g2
(g75
S'\x00\x00\x00\x00\x00\xd1\x94@'
tRp3606
ssg20
(dp3607
g13
g2
(g75
S'\x00\x00\x00\x00\x00\x80H@'
tRp3608
sg14
F12.5
sg15
g2
(g75
S'\x00\x00\x00\x00\x00\x80H@'
tRp3609
sssg28
(dp3610
g11
(dp3611
g13
I0
sg14
I0
sg15
I0
ssg16
(dp3612
g13
I0
sg14
I0
sg15
I0
ssg18
(dp3613
g13
I0
sg14
I0
sg15
I0
ssg20
(dp3614
g13
g2
(g75
S'h9\x7f\x96\xf3\xb3\xb3@'
tRp3615
sg14
F0
sg15
g2
(g75
S'h9\x7f\x96\xf3\xb3\xb3@'
tRp3616
sssg34
(dp3617
g11
(dp3618
g13
g2
(g75
S'|\xc5W|\x15\xa7\xd0@'
tRp3619
sg14
F52.689339925647431
sg15
g2
(g75
S'|\xc5W|\x15\xa7\xd0@'
tRp3620
ssg16
(dp3621
g13
g2
(g75
S'\x00\x00\x00\x00\x80\x9d\xb6@'
tRp3622
sg14
F94.960446971539795
sg15
g2
(g75
S'\x00\x00\x00\x00\x80\x9d\xb6@'
tRp3623
ssg18
(dp3624
g13
g2
(g75
S'\x99\x99\x99\x99\x99\xe3\xbe@'
tRp3625
sg14
F139.85951470365549
sg15
g2
(g75
S'\x99\x99\x99\x99\x99\xe3\xbe@'
tRp3626
ssg20
(dp3627
g13
g2
(g75
S'\xc7~\xec\xc7\xaeF\xd5@'
tRp3628
sg14
F53.173771149096702
sg15
g2
(g75
S'\xc7~\xec\xc7\xaeF\xd5@'
tRp3629
sssg40
(dp3630
g11
(dp3631
g13
I0
sg14
I0
sg15
I0
ssg16
(dp3632
g13
g2
(g75
S'VUUUUG\x95@'
tRp3633
sg14
F28.239821162900252
sg15
g2
(g75
S'VUUUUG\x95@'
tRp3634
ssg18
(dp3635
g13
g2
(g75
S'\x8c.\xba\xe8"\xd7\xa2@'
tRp3636
sg14
F98.285275708354789
sg15
g2
(g75
S'\x8c.\xba\xe8"\xd7\xa2@'
tRp3637
ssg20
(dp3638
g13
g2
(g75
S'9\x8e\xe38\x8e\xa3~@'
tRp3639
sg14
F5
sg15
g2
(g75
S'9\x8e\xe38\x8e\xa3~@'
tRp3640
sssg46
(dp3641
g11
(dp3642
g13
I0
sg14
I0
sg15
I0
ssg16
(dp3643
g13
I0
sg14
I0
sg15
I0
ssg18
(dp3644
g13
I0
sg14
I0
sg15
I0
ssg20
(dp3645
g13
I0
sg14
I0
sg15
I0
sssg52
(dp3646
g11
(dp3647
g13
I0
sg14
I0
sg15
I0
ssg16
(dp3648
g13
g2
(g75
S'\x00\x00\x00\x00\x00\x02\x94@'
tRp3649
sg14
F0
sg15
g2
(g75
S'\x00\x00\x00\x00\x00\x02\x94@'
tRp3650
ssg18
(dp3651
g13
g2
(g75
S'\x8a[\xa1\xb8\x95\xb3\xb1@'
tRp3652
sg14
F250
sg15
g2
(g75
S'\x8a[\xa1\xb8\x95\xb3\xb1@'
tRp3653
ssg20
(dp3654
g13
g2
(g75
S'.\xe5R.\xe9F\xfc@'
tRp3655
sg14
F0
sg15
g2
(g75
S'\xd9\x8f\xfd\xd8\xbbE\xfc@'
tRp3656
sssg58
(dp3657
g11
(dp3658
g13
I0
sg14
I0
sg15
I0
ssg16
(dp3659
g13
I0
sg14
I0
sg15
I0
ssg18
(dp3660
g13
I0
sg14
I0
sg15
I0
ssg20
(dp3661
g13
I0
sg14
I0
sg15
I0
ssssg367
(dp3662
g9
(dp3663
g11
(dp3664
g13
I0
sg14
I0
sg15
I0
ssg16
(dp3665
g13
I0
sg14
I0
sg15
I0
ssg18
(dp3666
g13
I0
sg14
I0
sg15
I0
ssg20
(dp3667
g13
I0
sg14
I0
sg15
I0
sssg22
(dp3668
g11
(dp3669
g13
I0
sg14
I0
sg15
I0
ssg16
(dp3670
g13
I0
sg14
I0
sg15
I0
ssg18
(dp3671
g13
I0
sg14
I0
sg15
I0
ssg20
(dp3672
g13
I0
sg14
I0
sg15
I0
sssg28
(dp3673
g11
(dp3674
g13
I0
sg14
I0
sg15
I0
ssg16
(dp3675
g13
I0
sg14
I0
sg15
I0
ssg18
(dp3676
g13
I0
sg14
I0
sg15
I0
ssg20
(dp3677
g13
I0
sg14
I0
sg15
I0
sssg34
(dp3678
g11
(dp3679
g13
I0
sg14
I0
sg15
I0
ssg16
(dp3680
g13
g2
(g75
S'WUUU\x81\xf7\xf7@'
tRp3681
sg14
F23.416666666666664
sg15
g2
(g75
S'\xac\xaa\xaa\xaa\xba\xe4\xf7@'
tRp3682
ssg18
(dp3683
g13
g2
(g75
S'!\x08\x82\xe0Z<;A'
tRp3684
sg14
F25.083333333333332
sg15
g2
(g75
S'>\xcf\xf3\xfcS\xf8:A'
tRp3685
ssg20
(dp3686
g13
g2
(g75
S'$I\x92$\xc59\xfa@'
tRp3687
sg14
F30
sg15
g2
(g75
S'$I\x92$\x8d\xf0\xf9@'
tRp3688
sssg40
(dp3689
g11
(dp3690
g13
g2
(g75
S'\xaa\xaa\xaa\xaa\x04\xd7\tA'
tRp3691
sg14
F0
sg15
g2
(g75
S'\x00\x00\x00\x00>\x10\tA'
tRp3692
ssg16
(dp3693
g13
g2
(g75
S'VUUUU3\xb2@'
tRp3694
sg14
F0
sg15
g2
(g75
S'VUUUU3\xb2@'
tRp3695
ssg18
(dp3696
g13
g2
(g75
S'\x1f|\xf0\xc17\xeb\x03A'
tRp3697
sg14
F5.833333333333333
sg15
g2
(g75
S'u\xd1E\x17\x87\xa4\x01A'
tRp3698
ssg20
(dp3699
g13
g2
(g75
S'\x00\x00\x00\x00\x0e\xdf\nA'
tRp3700
sg14
F5.0094846946259777
sg15
g2
(g75
S'\x00\x00\x00\x00>\x9e\x07A'
tRp3701
sssg46
(dp3702
g11
(dp3703
g13
I0
sg14
I0
sg15
I0
ssg16
(dp3704
g13
I0
sg14
I0
sg15
I0
ssg18
(dp3705
g13
g2
(g75
S'\x00\x00\x00\x00p\xe2\xdf@'
tRp3706
sg14
F0
sg15
g2
(g75
S'\xaa\xaa\xaa\xaa:\xcd\xdf@'
tRp3707
ssg20
(dp3708
g13
I0
sg14
I0
sg15
I0
sssg52
(dp3709
g11
(dp3710
g13
g2
(g75
S'\xab\xaa\xaa\xaaOF\x17A'
tRp3711
sg14
F0
sg15
g2
(g75
S'VUUU1`\x14A'
tRp3712
ssg16
(dp3713
g13
g2
(g75
S'FDDV`\xafqA'
tRp3714
sg14
F14.166666666666666
sg15
g2
(g75
S'\xf0\xee\xee\xf4\xe9\x13qA'
tRp3715
ssg18
(dp3716
g13
g2
(g75
S'L\x07u\x88r\xbaxA'
tRp3717
sg14
F14.166666666666666
sg15
g2
(g75
S'N\x07u\xccY\xefwA'
tRp3718
ssg20
(dp3719
g13
g2
(g75
S'\xca\xa7\xd9\xae-H:A'
tRp3720
sg14
F0
sg15
g2
(g75
S';R\xaf\x03I\xab8A'
tRp3721
sssg58
(dp3722
g11
(dp3723
g13
I0
sg14
I0
sg15
I0
ssg16
(dp3724
g13
g2
(g75
S'zww\xf7 (XA'
tRp3725
sg14
F0
sg15
g2
(g75
S"\xf1\xee\xeeN'\xe7VA"
tRp3726
ssg18
(dp3727
g13
g2
(g75
S'W.\xe5\x8a8\xe1uA'
tRp3728
sg14
F0
sg15
g2
(g75
S'\x8aa\x18\x16\xf85uA'
tRp3729
ssg20
(dp3730
g13
g2
(g75
S'_\xbd\xd5\x13I\xcdXA'
tRp3731
sg14
F0
sg15
g2
(g75
S'\x86:\xa8\xd3\x14\xf6VA'
tRp3732
ssssg445
(dp3733
g9
(dp3734
g11
(dp3735
g13
g2
(g75
S'\x00\x00\x00\x008\xa0#A'
tRp3736
sg14
F0
sg15
g2
(g75
S'\x00\x00\x00\x00\x04!\x1cA'
tRp3737
ssg16
(dp3738
g13
g2
(g75
S'\xab\xaa\xaa\xaa*\xab\x1aA'
tRp3739
sg14
F0
sg15
g2
(g75
S'\xab\xaa\xaa\xaa\xaci\x08A'
tRp3740
ssg18
(dp3741
g13
g2
(g75
S'\xff\xff\xff\xcf\x08\xfekA'
tRp3742
sg14
F0
sg15
g2
(g75
S'\x0f>\xf8\x80\xb7\x8fiA'
tRp3743
ssg20
(dp3744
g13
g2
(g75
S'^\xd7u\x13(\tpA'
tRp3745
sg14
F0
sg15
g2
(g75
S'Y\x96e\xc5\xac\xcatA'
tRp3746
sssg22
(dp3747
g11
(dp3748
g13
I0
sg14
I0
sg15
I0
ssg16
(dp3749
g13
I0
sg14
I0
sg15
I0
ssg18
(dp3750
g13
I0
sg14
I0
sg15
I0
ssg20
(dp3751
g13
I0
sg14
I0
sg15
I0
sssg28
(dp3752
g11
(dp3753
g13
I0
sg14
I0
sg15
I0
ssg16
(dp3754
g13
I0
sg14
I0
sg15
I0
ssg18
(dp3755
g13
I0
sg14
I0
sg15
I0
ssg20
(dp3756
g13
I0
sg14
I0
sg15
I0
sssg34
(dp3757
g11
(dp3758
g13
I0
sg14
I0
sg15
I0
ssg16
(dp3759
g13
I0
sg14
I0
sg15
I0
ssg18
(dp3760
g13
I0
sg14
I0
sg15
I0
ssg20
(dp3761
g13
I0
sg14
I0
sg15
I0
sssg40
(dp3762
g11
(dp3763
g13
I0
sg14
I0
sg15
I0
ssg16
(dp3764
g13
I0
sg14
I0
sg15
I0
ssg18
(dp3765
g13
I0
sg14
I0
sg15
I0
ssg20
(dp3766
g13
I0
sg14
I0
sg15
I0
sssg46
(dp3767
g11
(dp3768
g13
I0
sg14
I0
sg15
I0
ssg16
(dp3769
g13
I0
sg14
I0
sg15
I0
ssg18
(dp3770
g13
I0
sg14
I0
sg15
I0
ssg20
(dp3771
g13
I0
sg14
I0
sg15
I0
sssg52
(dp3772
g11
(dp3773
g13
I0
sg14
I0
sg15
I0
ssg16
(dp3774
g13
I0
sg14
I0
sg15
I0
ssg18
(dp3775
g13
I0
sg14
I0
sg15
I0
ssg20
(dp3776
g13
I0
sg14
I0
sg15
I0
sssg58
(dp3777
g11
(dp3778
g13
I0
sg14
I0
sg15
I0
ssg16
(dp3779
g13
I0
sg14
I0
sg15
I0
ssg18
(dp3780
g13
I0
sg14
I0
sg15
I0
ssg20
(dp3781
g13
I0
sg14
I0
sg15
I0
ssssg495
(dp3782
g9
(dp3783
g11
(dp3784
g13
I0
sg14
I0
sg15
I0
ssg16
(dp3785
g13
I0
sg14
I0
sg15
I0
ssg18
(dp3786
g13
I0
sg14
I0
sg15
I0
ssg20
(dp3787
g13
I0
sg14
I0
sg15
I0
sssg22
(dp3788
g11
(dp3789
g13
I0
sg14
I0
sg15
I0
ssg16
(dp3790
g13
I0
sg14
I0
sg15
I0
ssg18
(dp3791
g13
I0
sg14
I0
sg15
I0
ssg20
(dp3792
g13
I0
sg14
I0
sg15
I0
sssg28
(dp3793
g11
(dp3794
g13
I0
sg14
I0
sg15
I0
ssg16
(dp3795
g13
I0
sg14
I0
sg15
I0
ssg18
(dp3796
g13
I0
sg14
I0
sg15
I0
ssg20
(dp3797
g13
g2
(g75
S'\x19\x86a8\xbb\x85OA'
tRp3798
sg14
F0
sg15
g2
(g75
S'@!\xcej\x0e\xb5NA'
tRp3799
sssg34
(dp3800
g11
(dp3801
g13
g2
(g75
S'\xab\xaa\xaa~\xca\x89pA'
tRp3802
sg14
F1.6666666666666667
sg15
g2
(g75
S'\xab\xaa\xaa\x82\n\x86lA'
tRp3803
ssg16
(dp3804
g13
g2
(g75
S'UUUu9\xb8BA'
tRp3805
sg14
F1.25
sg15
g2
(g75
S'\x00\x00\x00\x80\xd9\x0c>A'
tRp3806
ssg18
(dp3807
g13
g2
(g75
S'\x00\x00\x00\xe0)\xf3nA'
tRp3808
sg14
F5.5795032592152483
sg15
g2
(g75
S'\x00\x00\x00\x88e\xa0lA'
tRp3809
ssg20
(dp3810
g13
g2
(g75
S'\xa2\x8b.\xea\xa0\xe5WA'
tRp3811
sg14
F10.93161299049113
sg15
g2
(g75
S'\xf8\xe0\x83\x0f\x10\xd2VA'
tRp3812
sssg40
(dp3813
g11
(dp3814
g13
I0
sg14
I0
sg15
I0
ssg16
(dp3815
g13
I0
sg14
I0
sg15
I0
ssg18
(dp3816
g13
g2
(g75
S'\x00\x00\x00\xc06\x1a@A'
tRp3817
sg14
F0
sg15
g2
(g75
S'UUU\xd56\x1d;A'
tRp3818
ssg20
(dp3819
g13
g2
(g75
S'\x00\x00\x00\x00\x00\x00\x00\x00'
tRp3820
sg14
I0
sg15
g2
(g75
S'\x00\x00\x00\x00\x00\x00\x00\x00'
tRp3821
sssg46
(dp3822
g11
(dp3823
g13
I0
sg14
I0
sg15
I0
ssg16
(dp3824
g13
I0
sg14
I0
sg15
I0
ssg18
(dp3825
g13
I0
sg14
I0
sg15
I0
ssg20
(dp3826
g13
I0
sg14
I0
sg15
I0
sssg52
(dp3827
g11
(dp3828
g13
I0
sg14
I0
sg15
I0
ssg16
(dp3829
g13
g2
(g75
S'\x00\x00\x00`\xe2nMA'
tRp3830
sg14
F0
sg15
g2
(g75
S'\x00\x00\x00 \xd1\x13LA'
tRp3831
ssg18
(dp3832
g13
g2
(g75
S'\xaa\xaa\xaa\xd2\xe2xdA'
tRp3833
sg14
F0
sg15
g2
(g75
S'\x00\x00\x00\x00x\x12cA'
tRp3834
ssg20
(dp3835
g13
g2
(g75
S'\xab\xaa\xaa\xaa\xda\t\xee@'
tRp3836
sg14
F0
sg15
g2
(g75
S'\xab\xaa\xaa\xaa\xda\t\xee@'
tRp3837
sssg58
(dp3838
g11
(dp3839
g13
I0
sg14
I0
sg15
I0
ssg16
(dp3840
g13
I0
sg14
I0
sg15
I0
ssg18
(dp3841
g13
I0
sg14
I0
sg15
I0
ssg20
(dp3842
g13
I0
sg14
I0
sg15
I0
sssssg2
(g4
S'\xdd\x07\x00\x00\x00\x00\x00\x00'
tRp3843
(dp3844
g7
(dp3845
g9
(dp3846
g11
(dp3847
g13
I0
sg14
I0
sg15
I0
ssg16
(dp3848
g13
I0
sg14
I0
sg15
I0
ssg18
(dp3849
g13
I0
sg14
I0
sg15
I0
ssg20
(dp3850
g13
I0
sg14
I0
sg15
I0
sssg22
(dp3851
g11
(dp3852
g13
I0
sg14
I0
sg15
I0
ssg16
(dp3853
g13
I0
sg14
I0
sg15
I0
ssg18
(dp3854
g13
I0
sg14
I0
sg15
I0
ssg20
(dp3855
g13
I0
sg14
I0
sg15
I0
sssg28
(dp3856
g11
(dp3857
g13
I0
sg14
I0
sg15
I0
ssg16
(dp3858
g13
I0
sg14
I0
sg15
I0
ssg18
(dp3859
g13
I0
sg14
I0
sg15
I0
ssg20
(dp3860
g13
I0
sg14
I0
sg15
I0
sssg34
(dp3861
g11
(dp3862
g13
I0
sg14
I0
sg15
I0
ssg16
(dp3863
g13
g2
(g75
S'\xab\xaa\xaa\xaa\xaa\n\x87@'
tRp3864
sg14
F0
sg15
g2
(g75
S'\xab\xaa\xaa\xaa\xaa\n\x87@'
tRp3865
ssg18
(dp3866
g13
g2
(g75
S'\xab\xaa\xaa\xaa\xaa\n\x87@'
tRp3867
sg14
F0
sg15
g2
(g75
S'\xab\xaa\xaa\xaa\xaa\n\x87@'
tRp3868
ssg20
(dp3869
g13
g2
(g75
S'\x88\x88\x88\x88\x88\xb0\xc9@'
tRp3870
sg14
F0
sg15
g2
(g75
S'\x88\x88\x88\x88\x88\xb0\xc9@'
tRp3871
sssg40
(dp3872
g11
(dp3873
g13
I0
sg14
I0
sg15
I0
ssg16
(dp3874
g13
I0
sg14
I0
sg15
I0
ssg18
(dp3875
g13
I0
sg14
I0
sg15
I0
ssg20
(dp3876
g13
g2
(g75
S'I\x92$I\x92\x04\xc7@'
tRp3877
sg14
F0
sg15
g2
(g75
S'I\x92$I\x92\x04\xc7@'
tRp3878
sssg46
(dp3879
g11
(dp3880
g13
I0
sg14
I0
sg15
I0
ssg16
(dp3881
g13
I0
sg14
I0
sg15
I0
ssg18
(dp3882
g13
g2
(g75
S'\xab\xaa\xaa\xea\x90\xe71A'
tRp3883
sg14
F0
sg15
g2
(g75
S'\x00\x00\x00@\t\xe71A'
tRp3884
ssg20
(dp3885
g13
I0
sg14
I0
sg15
I0
sssg52
(dp3886
g11
(dp3887
g13
I0
sg14
I0
sg15
I0
ssg16
(dp3888
g13
g2
(g75
S'\x00\x00\x00\xf0\xb4\xa4YA'
tRp3889
sg14
F0
sg15
g2
(g75
S'\x00\x00\x00\xf0\xb4\xa4YA'
tRp3890
ssg18
(dp3891
g13
g2
(g75
S'"""\xc2\xe2\xb6ZA'
tRp3892
sg14
F0
sg15
g2
(g75
S'"""\xc2\xe2\xb6ZA'
tRp3893
ssg20
(dp3894
g13
I0
sg14
I0
sg15
I0
sssg58
(dp3895
g11
(dp3896
g13
I0
sg14
I0
sg15
I0
ssg16
(dp3897
g13
g2
(g75
S'?\xe9\x93\xbe\xdc\xdcgA'
tRp3898
sg14
F0
sg15
g2
(g75
S'?\xe9\x93\xbe\xdc\xdcgA'
tRp3899
ssg18
(dp3900
g13
g2
(g75
S'\x11\x11\x11=|$vA'
tRp3901
sg14
F0
sg15
g2
(g75
S'\x11\x11\x11=|$vA'
tRp3902
ssg20
(dp3903
g13
g2
(g75
S'xww\x17j\xa4EA'
tRp3904
sg14
F0
sg15
g2
(g75
S'xww\x17j\xa4EA'
tRp3905
ssssg64
(dp3906
g9
(dp3907
g11
(dp3908
g13
I0
sg14
I0
sg15
I0
ssg16
(dp3909
g13
I0
sg14
I0
sg15
I0
ssg18
(dp3910
g13
I0
sg14
I0
sg15
I0
ssg20
(dp3911
g13
I0
sg14
I0
sg15
I0
sssg22
(dp3912
g11
(dp3913
g13
I0
sg14
I0
sg15
I0
ssg16
(dp3914
g13
I0
sg14
I0
sg15
I0
ssg18
(dp3915
g13
g2
(g75
S'VUUU5\xfd(A'
tRp3916
sg14
F1.25
sg15
g2
(g75
S'VUUU5\xfd(A'
tRp3917
ssg20
(dp3918
g13
g2
(g75
S'\x00\x00\x00\x00\x80Z\xba@'
tRp3919
sg14
F0.25
sg15
g2
(g75
S'\x00\x00\x00\x00\x80Z\xba@'
tRp3920
sssg28
(dp3921
g11
(dp3922
g13
I0
sg14
I0
sg15
I0
ssg16
(dp3923
g13
I0
sg14
I0
sg15
I0
ssg18
(dp3924
g13
I0
sg14
I0
sg15
I0
ssg20
(dp3925
g13
g2
(g75
S'\x87\xc0\xc2\x14\xb4|gA'
tRp3926
sg14
F0
sg15
g2
(g75
S'\x87\xc0\xc2\xd4M[gA'
tRp3927
sssg34
(dp3928
g11
(dp3929
g13
g2
(g75
S'VUUU\x98~\x1fA'
tRp3930
sg14
F2.7014652310732066
sg15
g2
(g75
S'VUUU\x98~\x1fA'
tRp3931
ssg16
(dp3932
g13
g2
(g75
S'\xb3,\xcb\x12\x90\xeddA'
tRp3933
sg14
F15.790606578685262
sg15
g2
(g75
S'\xd1\xf3<\x07\xd9\x8bdA'
tRp3934
ssg18
(dp3935
g13
g2
(g75
S'-\xcb\xb2te\x14zA'
tRp3936
sg14
F33.547202127429486
sg15
g2
(g75
S'"\x15R\xa1\xe0\xe0yA'
tRp3937
ssg20
(dp3938
g13
g2
(g75
S',\xd8\x82\x8d4\x8a]A'
tRp3939
sg14
F29.065822772960111
sg15
g2
(g75
S',\xd8\x82\x8d4\x8a]A'
tRp3940
sssg40
(dp3941
g11
(dp3942
g13
I0
sg14
I0
sg15
I0
ssg16
(dp3943
g13
g2
(g75
S'\x00\x00\x00\x00\x00\x00\xf1@'
tRp3944
sg14
F0.3133333333333333
sg15
g2
(g75
S'\x00\x00\x00\x00\x00\x00\xf1@'
tRp3945
ssg18
(dp3946
g13
g2
(g75
S'VUUU`\x04\x1bA'
tRp3947
sg14
F0.39666666666666661
sg15
g2
(g75
S'VUUU`\x04\x1bA'
tRp3948
ssg20
(dp3949
g13
g2
(g75
S'\x00\x00\x00\x00\x1e\xfe\x1eA'
tRp3950
sg14
F0.46549550317952215
sg15
g2
(g75
S'\x00\x00\x00\x00z\xeb\x1dA'
tRp3951
sssg46
(dp3952
g11
(dp3953
g13
I0
sg14
I0
sg15
I0
ssg16
(dp3954
g13
I0
sg14
I0
sg15
I0
ssg18
(dp3955
g13
I0
sg14
I0
sg15
I0
ssg20
(dp3956
g13
I0
sg14
I0
sg15
I0
sssg52
(dp3957
g11
(dp3958
g13
g2
(g75
S'\x00\x00\x00\x00\x80\xa2\xf6@'
tRp3959
sg14
F2.2999999999999998
sg15
g2
(g75
S'\x00\x00\x00\x00\x80\xa2\xf6@'
tRp3960
ssg16
(dp3961
g13
g2
(g75
S'\x00\x00\x00\x00\xd4\x0f\x06A'
tRp3962
sg14
F0
sg15
g2
(g75
S'\x00\x00\x00\x00\xd4\x0f\x06A'
tRp3963
ssg18
(dp3964
g13
g2
(g75
S'fff\xf6L=OA'
tRp3965
sg14
F0.95415205687788529
sg15
g2
(g75
S'fff\x96r\x1dOA'
tRp3966
ssg20
(dp3967
g13
g2
(g75
S'\\\xb0\x05\x9b\xd7\xe6AA'
tRp3968
sg14
F1.336675513108954
sg15
g2
(g75
S'\\\xb0\x05\x9b\xd7\xe6AA'
tRp3969
sssg58
(dp3970
g11
(dp3971
g13
I0
sg14
I0
sg15
I0
ssg16
(dp3972
g13
I0
sg14
I0
sg15
I0
ssg18
(dp3973
g13
I0
sg14
I0
sg15
I0
ssg20
(dp3974
g13
I0
sg14
I0
sg15
I0
ssssg129
(dp3975
g9
(dp3976
g11
(dp3977
g13
I0
sg14
I0
sg15
I0
ssg16
(dp3978
g13
I0
sg14
I0
sg15
I0
ssg18
(dp3979
g13
I0
sg14
I0
sg15
I0
ssg20
(dp3980
g13
I0
sg14
I0
sg15
I0
sssg22
(dp3981
g11
(dp3982
g13
I0
sg14
I0
sg15
I0
ssg16
(dp3983
g13
I0
sg14
I0
sg15
I0
ssg18
(dp3984
g13
I0
sg14
I0
sg15
I0
ssg20
(dp3985
g13
I0
sg14
I0
sg15
I0
sssg28
(dp3986
g11
(dp3987
g13
I0
sg14
I0
sg15
I0
ssg16
(dp3988
g13
I0
sg14
I0
sg15
I0
ssg18
(dp3989
g13
I0
sg14
I0
sg15
I0
ssg20
(dp3990
g13
g2
(g75
S'\xaa\xaa\xaa U>\x85A'
tRp3991
sg14
F0
sg15
g2
(g75
S'\xaa\xaa\xaa U>\x85A'
tRp3992
sssg34
(dp3993
g11
(dp3994
g13
I0
sg14
I0
sg15
I0
ssg16
(dp3995
g13
I0
sg14
I0
sg15
I0
ssg18
(dp3996
g13
I0
sg14
I0
sg15
I0
ssg20
(dp3997
g13
I0
sg14
I0
sg15
I0
sssg40
(dp3998
g11
(dp3999
g13
I0
sg14
I0
sg15
I0
ssg16
(dp4000
g13
I0
sg14
I0
sg15
I0
ssg18
(dp4001
g13
I0
sg14
I0
sg15
I0
ssg20
(dp4002
g13
I0
sg14
I0
sg15
I0
sssg46
(dp4003
g11
(dp4004
g13
I0
sg14
I0
sg15
I0
ssg16
(dp4005
g13
I0
sg14
I0
sg15
I0
ssg18
(dp4006
g13
I0
sg14
I0
sg15
I0
ssg20
(dp4007
g13
I0
sg14
I0
sg15
I0
sssg52
(dp4008
g11
(dp4009
g13
I0
sg14
I0
sg15
I0
ssg16
(dp4010
g13
I0
sg14
I0
sg15
I0
ssg18
(dp4011
g13
I0
sg14
I0
sg15
I0
ssg20
(dp4012
g13
I0
sg14
I0
sg15
I0
sssg58
(dp4013
g11
(dp4014
g13
I0
sg14
I0
sg15
I0
ssg16
(dp4015
g13
I0
sg14
I0
sg15
I0
ssg18
(dp4016
g13
I0
sg14
I0
sg15
I0
ssg20
(dp4017
g13
I0
sg14
I0
sg15
I0
ssssg171
(dp4018
g9
(dp4019
g11
(dp4020
g13
g2
(g75
S'\x00\x00\x00\x80\xf1\xf4&A'
tRp4021
sg14
F0
sg15
g2
(g75
S'\x00\x00\x00\x80c\xab A'
tRp4022
ssg16
(dp4023
g13
g2
(g75
S'\xab\xaa\xaa\xaa\x9ad!A'
tRp4024
sg14
F0
sg15
g2
(g75
S'UUUU\x19\xc6\x12A'
tRp4025
ssg18
(dp4026
g13
g2
(g75
S'\xef\xc1\x07GH\x9cfA'
tRp4027
sg14
F0
sg15
g2
(g75
S'\x9al\xb2Y\xf8CcA'
tRp4028
ssg20
(dp4029
g13
g2
(g75
S'\xff\xff\xff\x8f\x19\xb4iA'
tRp4030
sg14
F0
sg15
g2
(g75
S'\xac\xaa\xaaV\x05\xa3qA'
tRp4031
sssg22
(dp4032
g11
(dp4033
g13
I0
sg14
I0
sg15
I0
ssg16
(dp4034
g13
I0
sg14
I0
sg15
I0
ssg18
(dp4035
g13
g2
(g75
S'VUUU\x1f".A'
tRp4036
sg14
F23.86904761904762
sg15
g2
(g75
S'VUUU\x01P+A'
tRp4037
ssg20
(dp4038
g13
g2
(g75
S'\x00\x00\x00\x00\xf8\x9f\x04A'
tRp4039
sg14
F20.25
sg15
g2
(g75
S'\x00\x00\x00\x00\xfcj\x01A'
tRp4040
sssg28
(dp4041
g11
(dp4042
g13
I0
sg14
I0
sg15
I0
ssg16
(dp4043
g13
I0
sg14
I0
sg15
I0
ssg18
(dp4044
g13
I0
sg14
I0
sg15
I0
ssg20
(dp4045
g13
g2
(g75
S'\x99\xe0 \x03\xf6\xa7\x90A'
tRp4046
sg14
F0
sg15
g2
(g75
S'\x10X\x98(\x93\x1a\x90A'
tRp4047
sssg34
(dp4048
g11
(dp4049
g13
g2
(g75
S'\x9b\x99\x99E~\x13\x8cA'
tRp4050
sg14
F581.39355662762296
sg15
g2
(g75
S'\xbd\xbb\xbb\x1b\xb9\x9e\x87A'
tRp4051
ssg16
(dp4052
g13
g2
(g75
S'\x91\xfd\xd8\x13\xc1\xf8\xa3A'
tRp4053
sg14
F1111.8017680999817
sg15
g2
(g75
S'\xc9\x8b\xbc\xb6\xb4\x9a\xa0A'
tRp4054
ssg18
(dp4055
g13
g2
(g75
S'J\x04\x16\x00#\xd4\xb1A'
tRp4056
sg14
F1377.8874156153222
sg15
g2
(g75
S'\xcf\x90\x98\xe53(\xaeA'
tRp4057
ssg20
(dp4058
g13
g2
(g75
S"\xbf'6B(\xc2\x90A"
tRp4059
sg14
F411.64145722106826
sg15
g2
(g75
S'\xa1\x9eu^\x18\xbf\x8dA'
tRp4060
sssg40
(dp4061
g11
(dp4062
g13
I0
sg14
I0
sg15
I0
ssg16
(dp4063
g13
g2
(g75
S'\x83<%@\x0c\xf7SA'
tRp4064
sg14
F113.27722222222224
sg15
g2
(g75
S'\x94M6\xb1\xfb\xa1SA'
tRp4065
ssg18
(dp4066
g13
g2
(g75
S'S\xaf#9\n\xd1jA'
tRp4067
sg14
F221.29011178519463
sg15
g2
(g75
S'S\xaf#\t{QhA'
tRp4068
ssg20
(dp4069
g13
g2
(g75
S'\x8a\x86\x0b\xbc\xab\xf7cA'
tRp4070
sg14
F331.70947977849607
sg15
g2
(g75
S'\xf0\xecq27 `A'
tRp4071
sssg46
(dp4072
g11
(dp4073
g13
I0
sg14
I0
sg15
I0
ssg16
(dp4074
g13
g2
(g75
S'\x00\x00\x00\x00\xf0\x0c\xde@'
tRp4075
sg14
F0
sg15
g2
(g75
S'\x00\x00\x00\x00p\xce\xdd@'
tRp4076
ssg18
(dp4077
g13
g2
(g75
S'\xac\xaa\xaaJ\xe4\x00KA'
tRp4078
sg14
F0
sg15
g2
(g75
S'\x01\x00\x00@\xfc\xd6JA'
tRp4079
ssg20
(dp4080
g13
g2
(g75
S'VUUU\xa5!\xd7@'
tRp4081
sg14
F0
sg15
g2
(g75
S'VUUU\xa5!\xd7@'
tRp4082
sssg52
(dp4083
g11
(dp4084
g13
g2
(g75
S'\xab\xaa\xaa\xcaU\xd8BA'
tRp4085
sg14
F3.0499999999999998
sg15
g2
(g75
S'\xab\xaa\xaa\n\x04<BA'
tRp4086
ssg16
(dp4087
g13
g2
(g75
S'\xc5J\xac\xf4e/\x82A'
tRp4088
sg14
F15.833333333333332
sg15
g2
(g75
S'\x1b\xa0\x01\xc0\xb4\xc1\x81A'
tRp4089
ssg18
(dp4090
g13
g2
(g75
S'D7t\x1e\xc9\x82\x8cA'
tRp4091
sg14
F112.62081872354456
sg15
g2
(g75
S'D7t\xcc\x8dO\x8bA'
tRp4092
ssg20
(dp4093
g13
g2
(g75
S'\xa1\x1d7R\xa5+qA'
tRp4094
sg14
F333.87836482804505
sg15
g2
(g75
S'\x91\xdf>I9\xe6pA'
tRp4095
sssg58
(dp4096
g11
(dp4097
g13
g2
(g75
S'\x00\x00\x00\x00\x19\x14\x10A'
tRp4098
sg14
F0
sg15
g2
(g75
S'UUUUKn\x0eA'
tRp4099
ssg16
(dp4100
g13
g2
(g75
S'l\x9e\xa0\xc4\xa9\xb0~A'
tRp4101
sg14
F0
sg15
g2
(g75
S'\x0c\xd4\xfa\xa7k\x8b}A'
tRp4102
ssg18
(dp4103
g13
g2
(g75
S"\x87\x7f27'1\x92A"
tRp4104
sg14
F0
sg15
g2
(g75
S'\xa2\x8b\xae\xca\xcd\xc4\x91A'
tRp4105
ssg20
(dp4106
g13
g2
(g75
S'\xc6\x80i\x94\xaa=bA'
tRp4107
sg14
F0
sg15
g2
(g75
S'\x1b\xd6\xbeylxaA'
tRp4108
ssssg259
(dp4109
g9
(dp4110
g11
(dp4111
g13
I0
sg14
I0
sg15
I0
ssg16
(dp4112
g13
I0
sg14
I0
sg15
I0
ssg18
(dp4113
g13
I0
sg14
I0
sg15
I0
ssg20
(dp4114
g13
I0
sg14
I0
sg15
I0
sssg22
(dp4115
g11
(dp4116
g13
I0
sg14
I0
sg15
I0
ssg16
(dp4117
g13
I0
sg14
I0
sg15
I0
ssg18
(dp4118
g13
g2
(g75
S'\x00\x00\x00\x00\x90e\x04A'
tRp4119
sg14
F15.476190476190478
sg15
g2
(g75
S'\x00\x00\x00\x000:\xf2@'
tRp4120
ssg20
(dp4121
g13
g2
(g75
S'\x00\x00\x00\x00$\xcd\x03A'
tRp4122
sg14
F20
sg15
g2
(g75
S'\x00\x00\x00\x00(\x98\x00A'
tRp4123
sssg28
(dp4124
g11
(dp4125
g13
I0
sg14
I0
sg15
I0
ssg16
(dp4126
g13
I0
sg14
I0
sg15
I0
ssg18
(dp4127
g13
I0
sg14
I0
sg15
I0
ssg20
(dp4128
g13
g2
(g75
S'\xdd\xdd\xdd\x15x<hA'
tRp4129
sg14
F0
sg15
g2
(g75
S'DDDd\xf3\xf2cA'
tRp4130
sssg34
(dp4131
g11
(dp4132
g13
g2
(g75
S'433\x03D\x1d\x83A'
tRp4133
sg14
F476.55042472988299
sg15
g2
(g75
S'VUU\x8d[\x16\x80A'
tRp4134
ssg16
(dp4135
g13
g2
(g75
S'\xe68\x0e\xde\xd6\xbd\x9eA'
tRp4136
sg14
F910.63467901628792
sg15
g2
(g75
S'r\x1cG\xbcA9\x9aA'
tRp4137
ssg18
(dp4138
g13
g2
(g75
S'n\xce&s\n\xee\xaaA'
tRp4139
sg14
F1115.480108372207
sg15
g2
(g75
S'\x9f\xa0\xb2\xae3\xab\xa6A'
tRp4140
ssg20
(dp4141
g13
g2
(g75
S'\xa4\x8b.\x94$y\x89A'
tRp4142
sg14
F237.89960438270344
sg15
g2
(g75
S'\x190\x8d\xe5\x03\xec\x85A'
tRp4143
sssg40
(dp4144
g11
(dp4145
g13
I0
sg14
I0
sg15
I0
ssg16
(dp4146
g13
g2
(g75
S'\xaa\xaa\xaa*05@A'
tRp4147
sg14
F84.630555555555574
sg15
g2
(g75
S'UUU\xd5\x7f@?A'
tRp4148
ssg18
(dp4149
g13
g2
(g75
S'xwwG\xbb\x1f^A'
tRp4150
sg14
F172.78188288493888
sg15
g2
(g75
S'\x12\x11\x11\x81\xf5\xb6ZA'
tRp4151
ssg20
(dp4152
g13
g2
(g75
S'\xeb\x9e\x91\xd5\x9f\x92bA'
tRp4153
sg14
F127.46228309231081
sg15
g2
(g75
S'\xf8_EMv\xa6]A'
tRp4154
sssg46
(dp4155
g11
(dp4156
g13
I0
sg14
I0
sg15
I0
ssg16
(dp4157
g13
I0
sg14
I0
sg15
I0
ssg18
(dp4158
g13
I0
sg14
I0
sg15
I0
ssg20
(dp4159
g13
I0
sg14
I0
sg15
I0
sssg52
(dp4160
g11
(dp4161
g13
g2
(g75
S'\xab\xaa\xaa\xaai\xb1<A'
tRp4162
sg14
F0.75
sg15
g2
(g75
S'\xab\xaa\xaa\xaa\xc7\xda;A'
tRp4163
ssg16
(dp4164
g13
g2
(g75
S'\xff\xff\xff\xaf\x1e\xb6cA'
tRp4165
sg14
F0
sg15
g2
(g75
S'\xab\xaa\xaa\x8a\xee\x93bA'
tRp4166
ssg18
(dp4167
g13
g2
(g75
S'\xcb\xa5\\\x16#\x80rA'
tRp4168
sg14
F27.083333333333336
sg15
g2
(g75
S' \xfb\xb1\xcb\xf9\xb0pA'
tRp4169
ssg20
(dp4170
g13
g2
(g75
S'.\xe5R\xae8eVA'
tRp4171
sg14
F85.187962704527948
sg15
g2
(g75
S'/\xe5R\x8e._UA'
tRp4172
sssg58
(dp4173
g11
(dp4174
g13
I0
sg14
I0
sg15
I0
ssg16
(dp4175
g13
I0
sg14
I0
sg15
I0
ssg18
(dp4176
g13
I0
sg14
I0
sg15
I0
ssg20
(dp4177
g13
I0
sg14
I0
sg15
I0
ssssg325
(dp4178
g9
(dp4179
g11
(dp4180
g13
I0
sg14
I0
sg15
I0
ssg16
(dp4181
g13
I0
sg14
I0
sg15
I0
ssg18
(dp4182
g13
I0
sg14
I0
sg15
I0
ssg20
(dp4183
g13
I0
sg14
I0
sg15
I0
sssg22
(dp4184
g11
(dp4185
g13
I0
sg14
I0
sg15
I0
ssg16
(dp4186
g13
I0
sg14
I0
sg15
I0
ssg18
(dp4187
g13
g2
(g75
S'\x00\x00\x00\x00\x00\x0c\x97@'
tRp4188
sg14
F7.1428571428571432
sg15
g2
(g75
S'\x00\x00\x00\x00\x00\x0c\x97@'
tRp4189
ssg20
(dp4190
g13
I0
sg14
I0
sg15
I0
sssg28
(dp4191
g11
(dp4192
g13
I0
sg14
I0
sg15
I0
ssg16
(dp4193
g13
I0
sg14
I0
sg15
I0
ssg18
(dp4194
g13
I0
sg14
I0
sg15
I0
ssg20
(dp4195
g13
g2
(g75
S'\x88\x88\x88\x88H\xc2\xb1@'
tRp4196
sg14
F0
sg15
g2
(g75
S'\x88\x88\x88\x88H\xc2\xb1@'
tRp4197
sssg34
(dp4198
g11
(dp4199
g13
g2
(g75
S'\xde\xdd\xdd\xdd\xed\x81\xd0@'
tRp4200
sg14
F93.391666666666666
sg15
g2
(g75
S'\xde\xdd\xdd\xdd\xed\x81\xd0@'
tRp4201
ssg16
(dp4202
g13
g2
(g75
S'\xfb\xb1\x1f\xfb!\xa0\xd3@'
tRp4203
sg14
F162.68891620656828
sg15
g2
(g75
S'\xfb\xb1\x1f\xfb!\xa0\xd3@'
tRp4204
ssg18
(dp4205
g13
g2
(g75
S'\x0b\xf0\x17\xdcE\xe0\xd4@'
tRp4206
sg14
F199.74511740412464
sg15
g2
(g75
S'\x0b\xf0\x17\xdcE\xe0\xd4@'
tRp4207
ssg20
(dp4208
g13
g2
(g75
S'ffff\x96\xdd\xd3@'
tRp4209
sg14
F97.506944444444443
sg15
g2
(g75
S'ffff\x96\xdd\xd3@'
tRp4210
sssg40
(dp4211
g11
(dp4212
g13
I0
sg14
I0
sg15
I0
ssg16
(dp4213
g13
g2
(g75
S'\xaa\xaa\xaa\xaa\xaa\xeb\x91@'
tRp4214
sg14
F28.333333333333336
sg15
g2
(g75
S'\xaa\xaa\xaa\xaa\xaa\xeb\x91@'
tRp4215
ssg18
(dp4216
g13
g2
(g75
S'\x00\x00\x00\x00\x00N\x9f@'
tRp4217
sg14
F41.444895566922419
sg15
g2
(g75
S'\x00\x00\x00\x00\x00N\x9f@'
tRp4218
ssg20
(dp4219
g13
g2
(g75
S'\xf4<\xcf\xf3\xfc+\xb9@'
tRp4220
sg14
F198.61972576102033
sg15
g2
(g75
S'\xf4<\xcf\xf3\xfc+\xb9@'
tRp4221
sssg46
(dp4222
g11
(dp4223
g13
I0
sg14
I0
sg15
I0
ssg16
(dp4224
g13
I0
sg14
I0
sg15
I0
ssg18
(dp4225
g13
I0
sg14
I0
sg15
I0
ssg20
(dp4226
g13
I0
sg14
I0
sg15
I0
sssg52
(dp4227
g11
(dp4228
g13
g2
(g75
S'\x00\x00\x00\x00\x00\x007@'
tRp4229
sg14
F0
sg15
g2
(g75
S'\x00\x00\x00\x00\x00\x007@'
tRp4230
ssg16
(dp4231
g13
g2
(g75
S'\xaa\xaa\xaa\xaa*\x81\xa2@'
tRp4232
sg14
F0
sg15
g2
(g75
S'\xaa\xaa\xaa\xaa*\x81\xa2@'
tRp4233
ssg18
(dp4234
g13
g2
(g75
S'""""\xe2\xea\xbb@'
tRp4235
sg14
F68.75
sg15
g2
(g75
S'""""\xe2\xea\xbb@'
tRp4236
ssg20
(dp4237
g13
g2
(g75
S'`\x0b\xb6`\xe7$\xfc@'
tRp4238
sg14
F247.35372661040816
sg15
g2
(g75
S'`\x0b\xb6`7$\xfc@'
tRp4239
sssg58
(dp4240
g11
(dp4241
g13
I0
sg14
I0
sg15
I0
ssg16
(dp4242
g13
I0
sg14
I0
sg15
I0
ssg18
(dp4243
g13
I0
sg14
I0
sg15
I0
ssg20
(dp4244
g13
I0
sg14
I0
sg15
I0
ssssg367
(dp4245
g9
(dp4246
g11
(dp4247
g13
I0
sg14
I0
sg15
I0
ssg16
(dp4248
g13
I0
sg14
I0
sg15
I0
ssg18
(dp4249
g13
I0
sg14
I0
sg15
I0
ssg20
(dp4250
g13
I0
sg14
I0
sg15
I0
sssg22
(dp4251
g11
(dp4252
g13
I0
sg14
I0
sg15
I0
ssg16
(dp4253
g13
I0
sg14
I0
sg15
I0
ssg18
(dp4254
g13
I0
sg14
I0
sg15
I0
ssg20
(dp4255
g13
I0
sg14
I0
sg15
I0
sssg28
(dp4256
g11
(dp4257
g13
I0
sg14
I0
sg15
I0
ssg16
(dp4258
g13
I0
sg14
I0
sg15
I0
ssg18
(dp4259
g13
I0
sg14
I0
sg15
I0
ssg20
(dp4260
g13
g2
(g75
S'\x00\x00\x00\x00\x80m\xf1@'
tRp4261
sg14
F0
sg15
g2
(g75
S'\x00\x00\x00\x00\x80m\xf1@'
tRp4262
sssg34
(dp4263
g11
(dp4264
g13
g2
(g75
S'\x00\x00\x00\x00\xa0\xee\xc0@'
tRp4265
sg14
F3.75
sg15
g2
(g75
S'\x00\x00\x00\x00\xa0\xee\xc0@'
tRp4266
ssg16
(dp4267
g13
g2
(g75
S'\xab\xaa\xaa\xaa\xa6\xd8\xff@'
tRp4268
sg14
F19.156239319861516
sg15
g2
(g75
S'\xaa\xaa\xaa\xaaf\xba\xff@'
tRp4269
ssg18
(dp4270
g13
g2
(g75
S'\x01\x00\x00\x00\xfe\xb2\x03A'
tRp4271
sg14
F21.406239319861516
sg15
g2
(g75
S'VUUUa.\x03A'
tRp4272
ssg20
(dp4273
g13
g2
(g75
S"\xf2\x15_\xf1\x95'\xe3@"
tRp4274
sg14
F28.928571428571431
sg15
g2
(g75
S"\xf2\x15_\xf1\x95'\xe3@"
tRp4275
sssg40
(dp4276
g11
(dp4277
g13
I0
sg14
I0
sg15
I0
ssg16
(dp4278
g13
g2
(g75
S'\x07yJ\xe0\xaa.GA'
tRp4279
sg14
F0
sg15
g2
(g75
S'(\x9bl\x02z\x19GA'
tRp4280
ssg18
(dp4281
g13
g2
(g75
S']\xce\x9f\xf5\x16\xe2GA'
tRp4282
sg14
F6.666666666666667
sg15
g2
(g75
S'\xd3E\x17-\xce\xc6GA'
tRp4283
ssg20
(dp4284
g13
g2
(g75
S'\x92$I\x92\x14\r\tA'
tRp4285
sg14
F5.1619754219854261
sg15
g2
(g75
S'\xe8y\x9e\xe7e.\x05A'
tRp4286
sssg46
(dp4287
g11
(dp4288
g13
I0
sg14
I0
sg15
I0
ssg16
(dp4289
g13
g2
(g75
S'\x00\x00\x00\x00\xf0\x0c\xde@'
tRp4290
sg14
F0
sg15
g2
(g75
S'\x00\x00\x00\x00p\xce\xdd@'
tRp4291
ssg18
(dp4292
g13
g2
(g75
S'VUU\xd5\x1b\rBA'
tRp4293
sg14
F0
sg15
g2
(g75
S'\x01\x00\x00\xa0w\xe3AA'
tRp4294
ssg20
(dp4295
g13
g2
(g75
S'VUUU\xa5!\xd7@'
tRp4296
sg14
F0
sg15
g2
(g75
S'VUUU\xa5!\xd7@'
tRp4297
sssg52
(dp4298
g11
(dp4299
g13
g2
(g75
S'\xaa\xaa\xaa\xaa\x0bT\x1eA'
tRp4300
sg14
F0
sg15
g2
(g75
S'\xaa\xaa\xaa\xaa\x05\xcc\x1cA'
tRp4301
ssg16
(dp4302
g13
g2
(g75
S'\xbf\xd5[\xe5-xmA'
tRp4303
sg14
F15.833333333333332
sg15
g2
(g75
S'\x15+\xb1*ALmA'
tRp4304
ssg18
(dp4305
g13
g2
(g75
S'EQ\x14\xb1\x08\xafpA'
tRp4306
sg14
F15.833333333333332
sg15
g2
(g75
S'\x9c\xa6iB\xa6lpA'
tRp4307
ssg20
(dp4308
g13
g2
(g75
S"m\xb2\xc9\xa6\x9cd'A"
tRp4309
sg14
F0
sg15
g2
(g75
S"&\x9bl2\x86+'A"
tRp4310
sssg58
(dp4311
g11
(dp4312
g13
g2
(g75
S'\x00\x00\x00\x00\x19\x14\x10A'
tRp4313
sg14
F0
sg15
g2
(g75
S'UUUUKn\x0eA'
tRp4314
ssg16
(dp4315
g13
g2
(g75
S'\xcc\xa9Ve;\xc2rA'
tRp4316
sg14
F0
sg15
g2
(g75
S'm\xdf\xb0H\xfd\x9cqA'
tRp4317
ssg18
(dp4318
g13
g2
(g75
S'\x86v\xdcO\x10P\x89A'
tRp4319
sg14
F0
sg15
g2
(g75
S'\xbc\x8e\xd4v]w\x88A'
tRp4320
ssg20
(dp4321
g13
g2
(g75
S'\xd0E\x17\x1d \xa9YA'
tRp4322
sg14
F0
sg15
g2
(g75
S'z\xf0\xc1\xe7\xa3\x1eXA'
tRp4323
ssssg445
(dp4324
g9
(dp4325
g11
(dp4326
g13
g2
(g75
S'\x00\x00\x00\x80\xf1\xf4&A'
tRp4327
sg14
F0
sg15
g2
(g75
S'\x00\x00\x00\x80c\xab A'
tRp4328
ssg16
(dp4329
g13
g2
(g75
S'\xab\xaa\xaa\xaa\x9ad!A'
tRp4330
sg14
F0
sg15
g2
(g75
S'UUUU\x19\xc6\x12A'
tRp4331
ssg18
(dp4332
g13
g2
(g75
S'\xef\xc1\x07GH\x9cfA'
tRp4333
sg14
F0
sg15
g2
(g75
S'\x9al\xb2Y\xf8CcA'
tRp4334
ssg20
(dp4335
g13
g2
(g75
S'\xff\xff\xff\x8f\x19\xb4iA'
tRp4336
sg14
F0
sg15
g2
(g75
S'\xac\xaa\xaaV\x05\xa3qA'
tRp4337
sssg22
(dp4338
g11
(dp4339
g13
I0
sg14
I0
sg15
I0
ssg16
(dp4340
g13
I0
sg14
I0
sg15
I0
ssg18
(dp4341
g13
I0
sg14
I0
sg15
I0
ssg20
(dp4342
g13
I0
sg14
I0
sg15
I0
sssg28
(dp4343
g11
(dp4344
g13
I0
sg14
I0
sg15
I0
ssg16
(dp4345
g13
I0
sg14
I0
sg15
I0
ssg18
(dp4346
g13
I0
sg14
I0
sg15
I0
ssg20
(dp4347
g13
I0
sg14
I0
sg15
I0
sssg34
(dp4348
g11
(dp4349
g13
I0
sg14
I0
sg15
I0
ssg16
(dp4350
g13
I0
sg14
I0
sg15
I0
ssg18
(dp4351
g13
I0
sg14
I0
sg15
I0
ssg20
(dp4352
g13
I0
sg14
I0
sg15
I0
sssg40
(dp4353
g11
(dp4354
g13
I0
sg14
I0
sg15
I0
ssg16
(dp4355
g13
I0
sg14
I0
sg15
I0
ssg18
(dp4356
g13
I0
sg14
I0
sg15
I0
ssg20
(dp4357
g13
I0
sg14
I0
sg15
I0
sssg46
(dp4358
g11
(dp4359
g13
I0
sg14
I0
sg15
I0
ssg16
(dp4360
g13
I0
sg14
I0
sg15
I0
ssg18
(dp4361
g13
I0
sg14
I0
sg15
I0
ssg20
(dp4362
g13
I0
sg14
I0
sg15
I0
sssg52
(dp4363
g11
(dp4364
g13
I0
sg14
I0
sg15
I0
ssg16
(dp4365
g13
I0
sg14
I0
sg15
I0
ssg18
(dp4366
g13
I0
sg14
I0
sg15
I0
ssg20
(dp4367
g13
I0
sg14
I0
sg15
I0
sssg58
(dp4368
g11
(dp4369
g13
I0
sg14
I0
sg15
I0
ssg16
(dp4370
g13
I0
sg14
I0
sg15
I0
ssg18
(dp4371
g13
I0
sg14
I0
sg15
I0
ssg20
(dp4372
g13
I0
sg14
I0
sg15
I0
ssssg495
(dp4373
g9
(dp4374
g11
(dp4375
g13
I0
sg14
I0
sg15
I0
ssg16
(dp4376
g13
I0
sg14
I0
sg15
I0
ssg18
(dp4377
g13
I0
sg14
I0
sg15
I0
ssg20
(dp4378
g13
I0
sg14
I0
sg15
I0
sssg22
(dp4379
g11
(dp4380
g13
I0
sg14
I0
sg15
I0
ssg16
(dp4381
g13
I0
sg14
I0
sg15
I0
ssg18
(dp4382
g13
I0
sg14
I0
sg15
I0
ssg20
(dp4383
g13
I0
sg14
I0
sg15
I0
sssg28
(dp4384
g11
(dp4385
g13
I0
sg14
I0
sg15
I0
ssg16
(dp4386
g13
I0
sg14
I0
sg15
I0
ssg18
(dp4387
g13
I0
sg14
I0
sg15
I0
ssg20
(dp4388
g13
g2
(g75
S'\xab\xaa\xaa\xaa\x08\x07\nA'
tRp4389
sg14
F0
sg15
g2
(g75
S'\x00\x00\x00\x00\x10\xfc\tA'
tRp4390
sssg34
(dp4391
g11
(dp4392
g13
g2
(g75
S'\x00\x00\x00\xd4;hqA'
tRp4393
sg14
F5
sg15
g2
(g75
S'\x00\x00\x00\xd8\x04\x19mA'
tRp4394
ssg16
(dp4395
g13
g2
(g75
S'\xab\xaa\xaaX\xf62zA'
tRp4396
sg14
F3.5313269785785142
sg15
g2
(g75
S'\xab\xaa\xaa\xbc\xe1\x85qA'
tRp4397
ssg18
(dp4398
g13
g2
(g75
S'UUUhU\xc8\x85A'
tRp4399
sg14
F7.7087483916996282
sg15
g2
(g75
S'233\x16\xaf\xed\x80A'
tRp4400
ssg20
(dp4401
g13
g2
(g75
S'\xef\xee\xee\xf6\x12DaA'
tRp4402
sg14
F18.240514192388769
sg15
g2
(g75
S'\x9a\x99\x99\x19\xb5c`A'
tRp4403
sssg40
(dp4404
g11
(dp4405
g13
I0
sg14
I0
sg15
I0
ssg16
(dp4406
g13
I0
sg14
I0
sg15
I0
ssg18
(dp4407
g13
g2
(g75
S'UUU\x95%\xbeCA'
tRp4408
sg14
F0
sg15
g2
(g75
S'\xab\xaa\xaa*\xbd\xac@A'
tRp4409
ssg20
(dp4410
g13
g2
(g75
S'\x00\x00\x00\x00\x00\x00\x00\x00'
tRp4411
sg14
I0
sg15
g2
(g75
S'\x00\x00\x00\x00\x00\x00\x00\x00'
tRp4412
sssg46
(dp4413
g11
(dp4414
g13
I0
sg14
I0
sg15
I0
ssg16
(dp4415
g13
I0
sg14
I0
sg15
I0
ssg18
(dp4416
g13
I0
sg14
I0
sg15
I0
ssg20
(dp4417
g13
I0
sg14
I0
sg15
I0
sssg52
(dp4418
g11
(dp4419
g13
I0
sg14
I0
sg15
I0
ssg16
(dp4420
g13
g2
(g75
S'VUU\xc5\x12\xc7TA'
tRp4421
sg14
F0
sg15
g2
(g75
S'\x00\x00\x00\xe0\xc2\xf5SA'
tRp4422
ssg18
(dp4423
g13
g2
(g75
S'\x00\x00\x00\xf0\x8a~fA'
tRp4424
sg14
F0
sg15
g2
(g75
S'\xaa\xaa\xaa\xb2\xab\xdceA'
tRp4425
ssg20
(dp4426
g13
g2
(g75
S'VUU\xcdd\xfc`A'
tRp4427
sg14
F0
sg15
g2
(g75
S'\xab\xaa\xaa\x92$\xf8`A'
tRp4428
sssg58
(dp4429
g11
(dp4430
g13
I0
sg14
I0
sg15
I0
ssg16
(dp4431
g13
I0
sg14
I0
sg15
I0
ssg18
(dp4432
g13
I0
sg14
I0
sg15
I0
ssg20
(dp4433
g13
I0
sg14
I0
sg15
I0
sssssg2
(g4
S'\xde\x07\x00\x00\x00\x00\x00\x00'
tRp4434
(dp4435
g7
(dp4436
g9
(dp4437
g11
(dp4438
g13
I0
sg14
I0
sg15
I0
ssg16
(dp4439
g13
I0
sg14
I0
sg15
I0
ssg18
(dp4440
g13
I0
sg14
I0
sg15
I0
ssg20
(dp4441
g13
I0
sg14
I0
sg15
I0
sssg22
(dp4442
g11
(dp4443
g13
I0
sg14
I0
sg15
I0
ssg16
(dp4444
g13
I0
sg14
I0
sg15
I0
ssg18
(dp4445
g13
I0
sg14
I0
sg15
I0
ssg20
(dp4446
g13
I0
sg14
I0
sg15
I0
sssg28
(dp4447
g11
(dp4448
g13
I0
sg14
I0
sg15
I0
ssg16
(dp4449
g13
I0
sg14
I0
sg15
I0
ssg18
(dp4450
g13
I0
sg14
I0
sg15
I0
ssg20
(dp4451
g13
I0
sg14
I0
sg15
I0
sssg34
(dp4452
g11
(dp4453
g13
I0
sg14
I0
sg15
I0
ssg16
(dp4454
g13
g2
(g75
S'\x9a\x99\x99\x99\x99Q\x8c@'
tRp4455
sg14
F0
sg15
g2
(g75
S'\x9a\x99\x99\x99\x99Q\x8c@'
tRp4456
ssg18
(dp4457
g13
g2
(g75
S'4333\xb3\x17\xcc@'
tRp4458
sg14
F0
sg15
g2
(g75
S'4333\xb3\x17\xcc@'
tRp4459
ssg20
(dp4460
g13
g2
(g75
S'\x9a\x99\x99\x99\x99\xc1\x92@'
tRp4461
sg14
F0
sg15
g2
(g75
S'\x9a\x99\x99\x99\x99\xc1\x92@'
tRp4462
sssg40
(dp4463
g11
(dp4464
g13
I0
sg14
I0
sg15
I0
ssg16
(dp4465
g13
I0
sg14
I0
sg15
I0
ssg18
(dp4466
g13
I0
sg14
I0
sg15
I0
ssg20
(dp4467
g13
I0
sg14
I0
sg15
I0
sssg46
(dp4468
g11
(dp4469
g13
I0
sg14
I0
sg15
I0
ssg16
(dp4470
g13
I0
sg14
I0
sg15
I0
ssg18
(dp4471
g13
g2
(g75
S'3333S\x9f<A'
tRp4472
sg14
F0
sg15
g2
(g75
S'ffff\xd7\xda;A'
tRp4473
ssg20
(dp4474
g13
I0
sg14
I0
sg15
I0
sssg52
(dp4475
g11
(dp4476
g13
I0
sg14
I0
sg15
I0
ssg16
(dp4477
g13
g2
(g75
S'\x9a\x99\x99Y\xe9\xb4CA'
tRp4478
sg14
F0
sg15
g2
(g75
S'\x9a\x99\x99Y\xe9\xb4CA'
tRp4479
ssg18
(dp4480
g13
g2
(g75
S'\xcc\xcc\xcc\x1c\x19CgA'
tRp4481
sg14
F0
sg15
g2
(g75
S'\xcc\xcc\xcc\x1c\x19CgA'
tRp4482
ssg20
(dp4483
g13
I0
sg14
I0
sg15
I0
sssg58
(dp4484
g11
(dp4485
g13
g2
(g75
S'ffff\xe6\xd4*A'
tRp4486
sg14
F0
sg15
g2
(g75
S'ffff\xe6\xd4*A'
tRp4487
ssg16
(dp4488
g13
g2
(g75
S'333#\xc3-uA'
tRp4489
sg14
F1
sg15
g2
(g75
S'fff\xe6\xa4-uA'
tRp4490
ssg18
(dp4491
g13
g2
(g75
S'\x9a\x99\x99\xc1\xb2U\x82A'
tRp4492
sg14
F1
sg15
g2
(g75
S'\xcd\xcc\xcc\xf4PT\x82A'
tRp4493
ssg20
(dp4494
g13
g2
(g75
S'\x99\x99\x99\x99-\x11BA'
tRp4495
sg14
F0
sg15
g2
(g75
S'\x99\x99\x99\x99-\x11BA'
tRp4496
ssssg64
(dp4497
g9
(dp4498
g11
(dp4499
g13
I0
sg14
I0
sg15
I0
ssg16
(dp4500
g13
I0
sg14
I0
sg15
I0
ssg18
(dp4501
g13
I0
sg14
I0
sg15
I0
ssg20
(dp4502
g13
I0
sg14
I0
sg15
I0
sssg22
(dp4503
g11
(dp4504
g13
I0
sg14
I0
sg15
I0
ssg16
(dp4505
g13
I0
sg14
I0
sg15
I0
ssg18
(dp4506
g13
g2
(g75
S'\xcd\xcc\xcc\xcc\xf6\xf5)A'
tRp4507
sg14
F3
sg15
g2
(g75
S'\xcd\xcc\xcc\xcc\xf6\xf5)A'
tRp4508
ssg20
(dp4509
g13
I0
sg14
I0
sg15
I0
sssg28
(dp4510
g11
(dp4511
g13
I0
sg14
I0
sg15
I0
ssg16
(dp4512
g13
I0
sg14
I0
sg15
I0
ssg18
(dp4513
g13
I0
sg14
I0
sg15
I0
ssg20
(dp4514
g13
g2
(g75
S'\x89\x88\x88\xc8B\xe7oA'
tRp4515
sg14
F0.42690696194379774
sg15
g2
(g75
S'\x89\x88\x88\xc8B\xe7oA'
tRp4516
sssg34
(dp4517
g11
(dp4518
g13
g2
(g75
S'\x00\x00\x00\x0087\x18A'
tRp4519
sg14
F2.3933333333333331
sg15
g2
(g75
S'\x00\x00\x00\x0087\x18A'
tRp4520
ssg16
(dp4521
g13
g2
(g75
S'\x88\x88\x88\xd8\x8d\xd0aA'
tRp4522
sg14
F15.400389924033835
sg15
g2
(g75
S'VUU\xd5\x01\x89aA'
tRp4523
ssg18
(dp4524
g13
g2
(g75
S'DDD\xf8\x9c\xeduA'
tRp4525
sg14
F46.680541106075665
sg15
g2
(g75
S'\xab\xaa\xaa\xf6\xd6\xc9uA'
tRp4526
ssg20
(dp4527
g13
g2
(g75
S'xww\xb7\xa9dYA'
tRp4528
sg14
F25.515851714010477
sg15
g2
(g75
S'xww\xb7\xa9dYA'
tRp4529
sssg40
(dp4530
g11
(dp4531
g13
I0
sg14
I0
sg15
I0
ssg16
(dp4532
g13
g2
(g75
S'\x00\x00\x00\x00\\g\x11A'
tRp4533
sg14
F0
sg15
g2
(g75
S'\x00\x00\x00\x00\\g\x11A'
tRp4534
ssg18
(dp4535
g13
g2
(g75
S'DDDD\xe4\xa7(A'
tRp4536
sg14
F0.077357015506273941
sg15
g2
(g75
S'DDDD\xe4\xa7(A'
tRp4537
ssg20
(dp4538
g13
g2
(g75
S'\x00\x00\x00\x00\x80G$A'
tRp4539
sg14
F0
sg15
g2
(g75
S'\x00\x00\x00\x00\xf4\xeb#A'
tRp4540
sssg46
(dp4541
g11
(dp4542
g13
I0
sg14
I0
sg15
I0
ssg16
(dp4543
g13
I0
sg14
I0
sg15
I0
ssg18
(dp4544
g13
I0
sg14
I0
sg15
I0
ssg20
(dp4545
g13
I0
sg14
I0
sg15
I0
sssg52
(dp4546
g11
(dp4547
g13
g2
(g75
S'\x00\x00\x00\x00\x00\x95\xc5@'
tRp4548
sg14
F0.67000000000000004
sg15
g2
(g75
S'\x00\x00\x00\x00\x00\x95\xc5@'
tRp4549
ssg16
(dp4550
g13
g2
(g75
S'VUU\x95\xef\xa1UA'
tRp4551
sg14
F1.4470920600293582
sg15
g2
(g75
S'VUU\x95\xef\xa1UA'
tRp4552
ssg18
(dp4553
g13
g2
(g75
S'\xef\xee\xee\xdeb+fA'
tRp4554
sg14
F8.079228177407316
sg15
g2
(g75
S'\xef\xee\xee\xdeb+fA'
tRp4555
ssg20
(dp4556
g13
g2
(g75
S'\x00\x00\x00\x80\xc0\xb4@A'
tRp4557
sg14
F0
sg15
g2
(g75
S'\x00\x00\x00\x80\xc0\xb4@A'
tRp4558
sssg58
(dp4559
g11
(dp4560
g13
I0
sg14
I0
sg15
I0
ssg16
(dp4561
g13
I0
sg14
I0
sg15
I0
ssg18
(dp4562
g13
I0
sg14
I0
sg15
I0
ssg20
(dp4563
g13
I0
sg14
I0
sg15
I0
ssssg129
(dp4564
g9
(dp4565
g11
(dp4566
g13
I0
sg14
I0
sg15
I0
ssg16
(dp4567
g13
I0
sg14
I0
sg15
I0
ssg18
(dp4568
g13
I0
sg14
I0
sg15
I0
ssg20
(dp4569
g13
I0
sg14
I0
sg15
I0
sssg22
(dp4570
g11
(dp4571
g13
I0
sg14
I0
sg15
I0
ssg16
(dp4572
g13
I0
sg14
I0
sg15
I0
ssg18
(dp4573
g13
I0
sg14
I0
sg15
I0
ssg20
(dp4574
g13
I0
sg14
I0
sg15
I0
sssg28
(dp4575
g11
(dp4576
g13
I0
sg14
I0
sg15
I0
ssg16
(dp4577
g13
I0
sg14
I0
sg15
I0
ssg18
(dp4578
g13
I0
sg14
I0
sg15
I0
ssg20
(dp4579
g13
g2
(g75
S'\x00\x00\x00\x10m\xdf\x84A'
tRp4580
sg14
F0
sg15
g2
(g75
S'\x00\x00\x00\x10m\xdf\x84A'
tRp4581
sssg34
(dp4582
g11
(dp4583
g13
I0
sg14
I0
sg15
I0
ssg16
(dp4584
g13
I0
sg14
I0
sg15
I0
ssg18
(dp4585
g13
I0
sg14
I0
sg15
I0
ssg20
(dp4586
g13
I0
sg14
I0
sg15
I0
sssg40
(dp4587
g11
(dp4588
g13
I0
sg14
I0
sg15
I0
ssg16
(dp4589
g13
I0
sg14
I0
sg15
I0
ssg18
(dp4590
g13
I0
sg14
I0
sg15
I0
ssg20
(dp4591
g13
I0
sg14
I0
sg15
I0
sssg46
(dp4592
g11
(dp4593
g13
I0
sg14
I0
sg15
I0
ssg16
(dp4594
g13
I0
sg14
I0
sg15
I0
ssg18
(dp4595
g13
I0
sg14
I0
sg15
I0
ssg20
(dp4596
g13
I0
sg14
I0
sg15
I0
sssg52
(dp4597
g11
(dp4598
g13
I0
sg14
I0
sg15
I0
ssg16
(dp4599
g13
I0
sg14
I0
sg15
I0
ssg18
(dp4600
g13
I0
sg14
I0
sg15
I0
ssg20
(dp4601
g13
I0
sg14
I0
sg15
I0
sssg58
(dp4602
g11
(dp4603
g13
I0
sg14
I0
sg15
I0
ssg16
(dp4604
g13
I0
sg14
I0
sg15
I0
ssg18
(dp4605
g13
I0
sg14
I0
sg15
I0
ssg20
(dp4606
g13
I0
sg14
I0
sg15
I0
ssssg171
(dp4607
g9
(dp4608
g11
(dp4609
g13
g2
(g75
S'\x99\x99\x99\x99;\xfa)A'
tRp4610
sg14
F0
sg15
g2
(g75
S'\x99\x99\x99\x99\xad\xb0#A'
tRp4611
ssg16
(dp4612
g13
g2
(g75
S'\xcd\xcc\xcc\xccV\xdb#A'
tRp4613
sg14
F0
sg15
g2
(g75
S'\x9a\x99\x99\x99\x91\xb3\x17A'
tRp4614
ssg18
(dp4615
g13
g2
(g75
S'\xce\xcc\xcc\x8c\xc5\xfcdA'
tRp4616
sg14
F0
sg15
g2
(g75
S'\xcd\xcc\xcc<b\xf8aA'
tRp4617
ssg20
(dp4618
g13
g2
(g75
S'hff\xc6Q\xf3kA'
tRp4619
sg14
F0
sg15
g2
(g75
S'333#G\x8drA'
tRp4620
sssg22
(dp4621
g11
(dp4622
g13
I0
sg14
I0
sg15
I0
ssg16
(dp4623
g13
I0
sg14
I0
sg15
I0
ssg18
(dp4624
g13
g2
(g75
S'ffff\xc0p4A'
tRp4625
sg14
F167.73186123982344
sg15
g2
(g75
S'ffffK24A'
tRp4626
ssg20
(dp4627
g13
g2
(g75
S'\x00\x00\x00\x00\xb0\xa7\xe2@'
tRp4628
sg14
F17.252611154687692
sg15
g2
(g75
S'\x00\x00\x00\x00\xd0\xbd\xe1@'
tRp4629
sssg28
(dp4630
g11
(dp4631
g13
I0
sg14
I0
sg15
I0
ssg16
(dp4632
g13
I0
sg14
I0
sg15
I0
ssg18
(dp4633
g13
I0
sg14
I0
sg15
I0
ssg20
(dp4634
g13
g2
(g75
S'"""?\x18\xdb\x90A'
tRp4635
sg14
F0.42690696194379774
sg15
g2
(g75
S'\xbc\xbb\xbb\x89\x11h\x90A'
tRp4636
sssg34
(dp4637
g11
(dp4638
g13
g2
(g75
S'fff\xe6\xa1\xcaBA'
tRp4639
sg14
F114.24538406255762
sg15
g2
(g75
S'\x10\x11\x11\x91\xe3OAA'
tRp4640
ssg16
(dp4641
g13
g2
(g75
S'TU\xd5\xdd\xfb\xac\xa2A'
tRp4642
sg14
F2924.3602577472434
sg15
g2
(g75
S'\xee\xee\xee?\xe5I\x9dA'
tRp4643
ssg18
(dp4644
g13
g2
(g75
S'\x98\x99\xd9AwQ\xb2A'
tRp4645
sg14
F2142.1987638896098
sg15
g2
(g75
S'\xcf\xcc\xccA\xa2\x0e\xaeA'
tRp4646
ssg20
(dp4647
g13
g2
(g75
S'hff\xae{\xaf\x90A'
tRp4648
sg14
F838.63172372537258
sg15
g2
(g75
S'\x9a\x99\x99\x93\x80\xb2\x8dA'
tRp4649
sssg40
(dp4650
g11
(dp4651
g13
I0
sg14
I0
sg15
I0
ssg16
(dp4652
g13
g2
(g75
S'\xef\xee\xee\xde\xf2\x94\x91A'
tRp4653
sg14
F1881.1007472558688
sg15
g2
(g75
S'\xde\xdd\xdd\xc1\xc0\xfd\x86A'
tRp4654
ssg18
(dp4655
g13
g2
(g75
S'fff+^\xbb\x94A'
tRp4656
sg14
F2349.1029087871111
sg15
g2
(g75
S"xww%'V\x8cA"
tRp4657
ssg20
(dp4658
g13
g2
(g75
S'\x00\x00\x00\xc0\xcf\x18eA'
tRp4659
sg14
F914.21310894251496
sg15
g2
(g75
S'\xcd\xcc\xcc\x0c\xe0\xc9_A'
tRp4660
sssg46
(dp4661
g11
(dp4662
g13
I0
sg14
I0
sg15
I0
ssg16
(dp4663
g13
g2
(g75
S'gfffF\xfa\xe2@'
tRp4664
sg14
F0
sg15
g2
(g75
S'\x9a\x99\x99\x99\xf9\x84\xe2@'
tRp4665
ssg18
(dp4666
g13
g2
(g75
S'"""b\x1dUIA'
tRp4667
sg14
F0
sg15
g2
(g75
S'VUU\x95\xf6\xd0HA'
tRp4668
ssg20
(dp4669
g13
I0
sg14
I0
sg15
I0
sssg52
(dp4670
g11
(dp4671
g13
g2
(g75
S'333\xb3\x86?CA'
tRp4672
sg14
F1919.6700000000001
sg15
g2
(g75
S'fff\xe6/\xefAA'
tRp4673
ssg16
(dp4674
g13
g2
(g75
S'\xce\xcc\xcc\xea\x98$\x86A'
tRp4675
sg14
F36.113182560054256
sg15
g2
(g75
S'\xcd\xcc\xcc\xca\n\xed\x83A'
tRp4676
ssg18
(dp4677
g13
g2
(g75
S'VUUO3\xce\x94A'
tRp4678
sg14
F122.74531867743221
sg15
g2
(g75
S'\x88\x88\x882\xa2\xee\x92A'
tRp4679
ssg20
(dp4680
g13
g2
(g75
S'DDDt\xf1O\x7fA'
tRp4681
sg14
F679.18571619047509
sg15
g2
(g75
S'\xee\xee\xee:Kt~A'
tRp4682
sssg58
(dp4683
g11
(dp4684
g13
g2
(g75
S'533sB\x95=A'
tRp4685
sg14
F0
sg15
g2
(g75
S'\x02\x00\x00@/_=A'
tRp4686
ssg16
(dp4687
g13
g2
(g75
S'"""N\xa5}\x86A'
tRp4688
sg14
F1
sg15
g2
(g75
S'"""\xae\xee\x14\x86A'
tRp4689
ssg18
(dp4690
g13
g2
(g75
S'fffpks\x94A'
tRp4691
sg14
F41
sg15
g2
(g75
S'\x9c\x99\x99\xcb`\x0c\x94A'
tRp4692
ssg20
(dp4693
g13
g2
(g75
S'fff\x96[\xc6^A'
tRp4694
sg14
F0
sg15
g2
(g75
S'\x98\x99\x99\xc9\xc6_^A'
tRp4695
ssssg259
(dp4696
g9
(dp4697
g11
(dp4698
g13
I0
sg14
I0
sg15
I0
ssg16
(dp4699
g13
I0
sg14
I0
sg15
I0
ssg18
(dp4700
g13
I0
sg14
I0
sg15
I0
ssg20
(dp4701
g13
I0
sg14
I0
sg15
I0
sssg22
(dp4702
g11
(dp4703
g13
I0
sg14
I0
sg15
I0
ssg16
(dp4704
g13
I0
sg14
I0
sg15
I0
ssg18
(dp4705
g13
g2
(g75
S'\x00\x00\x00\x00,\xd4\x1dA'
tRp4706
sg14
F132.24530210003851
sg15
g2
(g75
S'\x00\x00\x00\x00X\xda\x1cA'
tRp4707
ssg20
(dp4708
g13
g2
(g75
S'\x00\x00\x00\x00\xb0\xa7\xe2@'
tRp4709
sg14
F17.252611154687692
sg15
g2
(g75
S'\x00\x00\x00\x00\xd0\xbd\xe1@'
tRp4710
sssg28
(dp4711
g11
(dp4712
g13
I0
sg14
I0
sg15
I0
ssg16
(dp4713
g13
I0
sg14
I0
sg15
I0
ssg18
(dp4714
g13
I0
sg14
I0
sg15
I0
ssg20
(dp4715
g13
g2
(g75
S'UUU\x9d3\x15cA'
tRp4716
sg14
F0
sg15
g2
(g75
S'FDD$\x19\xfe^A'
tRp4717
sssg34
(dp4718
g11
(dp4719
g13
g2
(g75
S'\x00\x00\x00\x00GT?A'
tRp4720
sg14
F76.185384062557631
sg15
g2
(g75
S'UUUU\xca^<A'
tRp4721
ssg16
(dp4722
g13
g2
(g75
S'fff:\xbb;\x99A'
tRp4723
sg14
F2379.0398234683707
sg15
g2
(g75
S'\x10\x11\x11Wh|\x94A'
tRp4724
ssg18
(dp4725
g13
g2
(g75
S'tw\xf7\xf3)p\xa9A'
tRp4726
sg14
F1749.7117477502293
sg15
g2
(g75
S'\xce\xcc\xcc\x90\x8d\xb6\xa4A'
tRp4727
ssg20
(dp4728
g13
g2
(g75
S'WUU\xa9\xf2\x07\x8bA'
tRp4729
sg14
F608.61587201136206
sg15
g2
(g75
S'#""\xa8\x17t\x87A'
tRp4730
sssg40
(dp4731
g11
(dp4732
g13
I0
sg14
I0
sg15
I0
ssg16
(dp4733
g13
g2
(g75
S'\x00\x00\x00\x88\x14\xa4\x81A'
tRp4734
sg14
F1582.1507472558687
sg15
g2
(g75
S'\x00\x00\x00\x08\x8a\xfevA'
tRp4735
ssg18
(dp4736
g13
g2
(g75
S'fff\xae\xa1\xc1\x85A'
tRp4737
sg14
F1898.789837485891
sg15
g2
(g75
S'\xef\xee\xee\x86|\xd1}A'
tRp4738
ssg20
(dp4739
g13
g2
(g75
S'\xcd\xcc\xcc\xcc.\x86cA'
tRp4740
sg14
F459.82831026581249
sg15
g2
(g75
S'333\xf3\xca\xd1\\A'
tRp4741
sssg46
(dp4742
g11
(dp4743
g13
I0
sg14
I0
sg15
I0
ssg16
(dp4744
g13
I0
sg14
I0
sg15
I0
ssg18
(dp4745
g13
I0
sg14
I0
sg15
I0
ssg20
(dp4746
g13
I0
sg14
I0
sg15
I0
sssg52
(dp4747
g11
(dp4748
g13
g2
(g75
S'3333lHBA'
tRp4749
sg14
F119
sg15
g2
(g75
S'ffff\x15\xf8@A'
tRp4750
ssg16
(dp4751
g13
g2
(g75
S'\x89\x88\x88h\xa0yxA'
tRp4752
sg14
F17.432530409321952
sg15
g2
(g75
S'!""\xc27(uA'
tRp4753
ssg18
(dp4754
g13
g2
(g75
S'\xaa\xaa\xaadJ\xca\x83A'
tRp4755
sg14
F82.432530409321942
sg15
g2
(g75
S'DDD\xe6\xc8\xa6\x80A'
tRp4756
ssg20
(dp4757
g13
g2
(g75
S'\xde\xdd\xdd\r{\xbajA'
tRp4758
sg14
F46.444444444444443
sg15
g2
(g75
S'333\x9bx"iA'
tRp4759
sssg58
(dp4760
g11
(dp4761
g13
I0
sg14
I0
sg15
I0
ssg16
(dp4762
g13
I0
sg14
I0
sg15
I0
ssg18
(dp4763
g13
g2
(g75
S'\x00\x00\x00\x00`\x14\xf3@'
tRp4764
sg14
F40
sg15
g2
(g75
S'\x00\x00\x00\x00dp\xf0@'
tRp4765
ssg20
(dp4766
g13
I0
sg14
I0
sg15
I0
ssssg325
(dp4767
g9
(dp4768
g11
(dp4769
g13
I0
sg14
I0
sg15
I0
ssg16
(dp4770
g13
I0
sg14
I0
sg15
I0
ssg18
(dp4771
g13
I0
sg14
I0
sg15
I0
ssg20
(dp4772
g13
I0
sg14
I0
sg15
I0
sssg22
(dp4773
g11
(dp4774
g13
I0
sg14
I0
sg15
I0
ssg16
(dp4775
g13
I0
sg14
I0
sg15
I0
ssg18
(dp4776
g13
g2
(g75
S'\x00\x00\x00\x00\x00@g@'
tRp4777
sg14
F32.486559139784944
sg15
g2
(g75
S'\x00\x00\x00\x00\x00@g@'
tRp4778
ssg20
(dp4779
g13
I0
sg14
I0
sg15
I0
sssg28
(dp4780
g11
(dp4781
g13
I0
sg14
I0
sg15
I0
ssg16
(dp4782
g13
I0
sg14
I0
sg15
I0
ssg18
(dp4783
g13
I0
sg14
I0
sg15
I0
ssg20
(dp4784
g13
g2
(g75
S'\x00\x00\x00\x00\x00\xbc\xae@'
tRp4785
sg14
F0
sg15
g2
(g75
S'\x00\x00\x00\x00\x00\xbc\xae@'
tRp4786
sssg34
(dp4787
g11
(dp4788
g13
g2
(g75
S'\x00\x00\x00\x00\x00\xed\xb0@'
tRp4789
sg14
F26.666666666666664
sg15
g2
(g75
S'\x00\x00\x00\x00\x00\xed\xb0@'
tRp4790
ssg16
(dp4791
g13
g2
(g75
S'\x00\x00\x00\x00\x80\xd1\xcb@'
tRp4792
sg14
F446.42004435483869
sg15
g2
(g75
S'\x00\x00\x00\x00\x80\xd1\xcb@'
tRp4793
ssg18
(dp4794
g13
g2
(g75
S'#"""\xa2W\xcd@'
tRp4795
sg14
F267.80647503330482
sg15
g2
(g75
S'#"""\xa2W\xcd@'
tRp4796
ssg20
(dp4797
g13
g2
(g75
S'\xcd\xcc\xcc\xcc\x8c2\xd5@'
tRp4798
sg14
F115.08333333333334
sg15
g2
(g75
S'\xcd\xcc\xcc\xcc\x8c2\xd5@'
tRp4799
sssg40
(dp4800
g11
(dp4801
g13
I0
sg14
I0
sg15
I0
ssg16
(dp4802
g13
g2
(g75
S'\x00\x00\x00\x00\x00\x0f\xc6@'
tRp4803
sg14
F281.44999999999999
sg15
g2
(g75
S'\x00\x00\x00\x00\x00\x0f\xc6@'
tRp4804
ssg18
(dp4805
g13
g2
(g75
S'EDDD\xc4U\xcc@'
tRp4806
sg14
F408.73571428571421
sg15
g2
(g75
S'EDDD\xc4U\xcc@'
tRp4807
ssg20
(dp4808
g13
g2
(g75
S'\x00\x00\x00\x00\x00\x9a\x97@'
tRp4809
sg14
F441.25
sg15
g2
(g75
S'\x00\x00\x00\x00\x00\x9a\x97@'
tRp4810
sssg46
(dp4811
g11
(dp4812
g13
I0
sg14
I0
sg15
I0
ssg16
(dp4813
g13
I0
sg14
I0
sg15
I0
ssg18
(dp4814
g13
I0
sg14
I0
sg15
I0
ssg20
(dp4815
g13
I0
sg14
I0
sg15
I0
sssg52
(dp4816
g11
(dp4817
g13
g2
(g75
S'\x00\x00\x00\x00\xb00\xfc@'
tRp4818
sg14
F1800
sg15
g2
(g75
S'\x00\x00\x00\x00\xb00\xfc@'
tRp4819
ssg16
(dp4820
g13
g2
(g75
S'\xf0\xee\xee\xeenA\xb2@'
tRp4821
sg14
F17.233560090702948
sg15
g2
(g75
S'\xf0\xee\xee\xeenA\xb2@'
tRp4822
ssg18
(dp4823
g13
g2
(g75
S'VUUU\x955\xbc@'
tRp4824
sg14
F32.233560090702952
sg15
g2
(g75
S'VUUU\x955\xbc@'
tRp4825
ssg20
(dp4826
g13
g2
(g75
S'\xde\xdd\xdd\xdd\x01H\x00A'
tRp4827
sg14
F632.74127174603063
sg15
g2
(g75
S'\xde\xdd\xdd\xdd\x01H\x00A'
tRp4828
sssg58
(dp4829
g11
(dp4830
g13
I0
sg14
I0
sg15
I0
ssg16
(dp4831
g13
I0
sg14
I0
sg15
I0
ssg18
(dp4832
g13
I0
sg14
I0
sg15
I0
ssg20
(dp4833
g13
I0
sg14
I0
sg15
I0
ssssg367
(dp4834
g9
(dp4835
g11
(dp4836
g13
I0
sg14
I0
sg15
I0
ssg16
(dp4837
g13
I0
sg14
I0
sg15
I0
ssg18
(dp4838
g13
I0
sg14
I0
sg15
I0
ssg20
(dp4839
g13
I0
sg14
I0
sg15
I0
sssg22
(dp4840
g11
(dp4841
g13
I0
sg14
I0
sg15
I0
ssg16
(dp4842
g13
I0
sg14
I0
sg15
I0
ssg18
(dp4843
g13
I0
sg14
I0
sg15
I0
ssg20
(dp4844
g13
I0
sg14
I0
sg15
I0
sssg28
(dp4845
g11
(dp4846
g13
I0
sg14
I0
sg15
I0
ssg16
(dp4847
g13
I0
sg14
I0
sg15
I0
ssg18
(dp4848
g13
I0
sg14
I0
sg15
I0
ssg20
(dp4849
g13
g2
(g75
S'\x97\x99\x99\x99\xb9!\xfe@'
tRp4850
sg14
F0
sg15
g2
(g75
S'\x97\x99\x99\x99\xb9!\xfe@'
tRp4851
sssg34
(dp4852
g11
(dp4853
g13
g2
(g75
S'ffff\xe6 \xc1@'
tRp4854
sg14
F9
sg15
g2
(g75
S'ffff\xe6 \xc1@'
tRp4855
ssg16
(dp4856
g13
g2
(g75
S'\x99\x99\x99\x99I\x9d\xf0@'
tRp4857
sg14
F26
sg15
g2
(g75
S'\x99\x99\x99\x99I\x9d\xf0@'
tRp4858
ssg18
(dp4859
g13
g2
(g75
S'\xcc\xcc\xcc\xcc\\\xb0\xff@'
tRp4860
sg14
F26
sg15
g2
(g75
S'\xcc\xcc\xcc\xcc\\\xb0\xff@'
tRp4861
ssg20
(dp4862
g13
g2
(g75
S'hfff&\xde\xcb@'
tRp4863
sg14
F82.5
sg15
g2
(g75
S'hfff&\xde\xcb@'
tRp4864
sssg40
(dp4865
g11
(dp4866
g13
I0
sg14
I0
sg15
I0
ssg16
(dp4867
g13
g2
(g75
S'xwww\xaf\x05 A'
tRp4868
sg14
F0
sg15
g2
(g75
S'\xf0\xee\xee\xee\xde\xc2\x1fA'
tRp4869
ssg18
(dp4870
g13
g2
(g75
S'xww\xf7y\x9c.A'
tRp4871
sg14
F24
sg15
g2
(g75
S'\xac\xaa\xaa*\x05].A'
tRp4872
ssg20
(dp4873
g13
g2
(g75
S'\xcd\xcc\xcc\xcc\x08[\x03A'
tRp4874
sg14
F13.134798676702546
sg15
g2
(g75
S'gfff>G\xfe@'
tRp4875
sssg46
(dp4876
g11
(dp4877
g13
I0
sg14
I0
sg15
I0
ssg16
(dp4878
g13
g2
(g75
S'gfffF\xfa\xe2@'
tRp4879
sg14
F0
sg15
g2
(g75
S'\x9a\x99\x99\x99\xf9\x84\xe2@'
tRp4880
ssg18
(dp4881
g13
g2
(g75
S'\x12\x11\x11\x91\xe7\n6A'
tRp4882
sg14
F0
sg15
g2
(g75
S'EDD\xc4\x15\xc75A'
tRp4883
ssg20
(dp4884
g13
I0
sg14
I0
sg15
I0
sssg52
(dp4885
g11
(dp4886
g13
I0
sg14
I0
sg15
I0
ssg16
(dp4887
g13
g2
(g75
S'\xce\xcc\xcc,\xd7\x94NA'
tRp4888
sg14
F0
sg15
g2
(g75
S'\x01\x00\x00`\x1aHHA'
tRp4889
ssg18
(dp4890
g13
g2
(g75
S'\x02\x00\x00\xc0\x7f\x87iA'
tRp4891
sg14
F0
sg15
g2
(g75
S'533\xd34\xc1gA'
tRp4892
ssg20
(dp4893
g13
g2
(g75
S'\x00\x00\x00\x00\x88\xaf\nA'
tRp4894
sg14
F0
sg15
g2
(g75
S'4333\xabT\tA'
tRp4895
sssg58
(dp4896
g11
(dp4897
g13
g2
(g75
S'\x02\x00\x00@\xcf*0A'
tRp4898
sg14
F0
sg15
g2
(g75
S'\x9d\x99\x99\x19x\xe9/A'
tRp4899
ssg16
(dp4900
g13
g2
(g75
S'\x11\x11\x11y\x87\xcdwA'
tRp4901
sg14
F0
sg15
g2
(g75
S'\xdd\xdd\xddu8\xfcvA'
tRp4902
ssg18
(dp4903
g13
g2
(g75
S'333\xef\x99\x87\x86A'
tRp4904
sg14
F0
sg15
g2
(g75
S'lffp8\xbc\x85A'
tRp4905
ssg20
(dp4906
g13
g2
(g75
S'\x9a\x99\x99\xc9\xc4\xbdUA'
tRp4907
sg14
F0
sg15
g2
(g75
S'\xcc\xcc\xcc\xfc/WUA'
tRp4908
ssssg445
(dp4909
g9
(dp4910
g11
(dp4911
g13
g2
(g75
S'\x99\x99\x99\x99;\xfa)A'
tRp4912
sg14
F0
sg15
g2
(g75
S'\x99\x99\x99\x99\xad\xb0#A'
tRp4913
ssg16
(dp4914
g13
g2
(g75
S'\xcd\xcc\xcc\xccV\xdb#A'
tRp4915
sg14
F0
sg15
g2
(g75
S'\x9a\x99\x99\x99\x91\xb3\x17A'
tRp4916
ssg18
(dp4917
g13
g2
(g75
S'\xce\xcc\xcc\x8c\xc5\xfcdA'
tRp4918
sg14
F0
sg15
g2
(g75
S'\xcd\xcc\xcc<b\xf8aA'
tRp4919
ssg20
(dp4920
g13
g2
(g75
S'hff\xc6Q\xf3kA'
tRp4921
sg14
F0
sg15
g2
(g75
S'333#G\x8drA'
tRp4922
sssg22
(dp4923
g11
(dp4924
g13
I0
sg14
I0
sg15
I0
ssg16
(dp4925
g13
I0
sg14
I0
sg15
I0
ssg18
(dp4926
g13
I0
sg14
I0
sg15
I0
ssg20
(dp4927
g13
I0
sg14
I0
sg15
I0
sssg28
(dp4928
g11
(dp4929
g13
I0
sg14
I0
sg15
I0
ssg16
(dp4930
g13
I0
sg14
I0
sg15
I0
ssg18
(dp4931
g13
I0
sg14
I0
sg15
I0
ssg20
(dp4932
g13
I0
sg14
I0
sg15
I0
sssg34
(dp4933
g11
(dp4934
g13
I0
sg14
I0
sg15
I0
ssg16
(dp4935
g13
I0
sg14
I0
sg15
I0
ssg18
(dp4936
g13
I0
sg14
I0
sg15
I0
ssg20
(dp4937
g13
I0
sg14
I0
sg15
I0
sssg40
(dp4938
g11
(dp4939
g13
I0
sg14
I0
sg15
I0
ssg16
(dp4940
g13
I0
sg14
I0
sg15
I0
ssg18
(dp4941
g13
I0
sg14
I0
sg15
I0
ssg20
(dp4942
g13
I0
sg14
I0
sg15
I0
sssg46
(dp4943
g11
(dp4944
g13
I0
sg14
I0
sg15
I0
ssg16
(dp4945
g13
I0
sg14
I0
sg15
I0
ssg18
(dp4946
g13
I0
sg14
I0
sg15
I0
ssg20
(dp4947
g13
I0
sg14
I0
sg15
I0
sssg52
(dp4948
g11
(dp4949
g13
I0
sg14
I0
sg15
I0
ssg16
(dp4950
g13
I0
sg14
I0
sg15
I0
ssg18
(dp4951
g13
I0
sg14
I0
sg15
I0
ssg20
(dp4952
g13
I0
sg14
I0
sg15
I0
sssg58
(dp4953
g11
(dp4954
g13
I0
sg14
I0
sg15
I0
ssg16
(dp4955
g13
I0
sg14
I0
sg15
I0
ssg18
(dp4956
g13
I0
sg14
I0
sg15
I0
ssg20
(dp4957
g13
I0
sg14
I0
sg15
I0
ssssg495
(dp4958
g9
(dp4959
g11
(dp4960
g13
I0
sg14
I0
sg15
I0
ssg16
(dp4961
g13
I0
sg14
I0
sg15
I0
ssg18
(dp4962
g13
I0
sg14
I0
sg15
I0
ssg20
(dp4963
g13
I0
sg14
I0
sg15
I0
sssg22
(dp4964
g11
(dp4965
g13
I0
sg14
I0
sg15
I0
ssg16
(dp4966
g13
I0
sg14
I0
sg15
I0
ssg18
(dp4967
g13
I0
sg14
I0
sg15
I0
ssg20
(dp4968
g13
I0
sg14
I0
sg15
I0
sssg28
(dp4969
g11
(dp4970
g13
I0
sg14
I0
sg15
I0
ssg16
(dp4971
g13
I0
sg14
I0
sg15
I0
ssg18
(dp4972
g13
I0
sg14
I0
sg15
I0
ssg20
(dp4973
g13
g2
(g75
S'\x00\x00\x00\x00\x104\xf0@'
tRp4974
sg14
F0
sg15
g2
(g75
S'\x00\x00\x00\x00\x80Y\xee@'
tRp4975
sssg34
(dp4976
g11
(dp4977
g13
I0
sg14
I0
sg15
I0
ssg16
(dp4978
g13
g2
(g75
S'\x00\x00\x00~-\xbe\x83A'
tRp4979
sg14
F57.5
sg15
g2
(g75
S'\x00\x00\x00\x9c"]zA'
tRp4980
ssg18
(dp4981
g13
g2
(g75
S'\x89\x88\x88Oj\xe0\x90A'
tRp4982
sg14
F52
sg15
g2
(g75
S'\xee\xee\xee$\xf8g\x8aA'
tRp4983
ssg20
(dp4984
g13
g2
(g75
S'\xab\xaa\xaa*./YA'
tRp4985
sg14
F6.916666666666667
sg15
g2
(g75
S'\xab\xaa\xaa\xeaOjXA'
tRp4986
sssg40
(dp4987
g11
(dp4988
g13
I0
sg14
I0
sg15
I0
ssg16
(dp4989
g13
g2
(g75
S'\x00\x00\x00\xd0\x8a!\x81A'
tRp4990
sg14
F17.5
sg15
g2
(g75
S'\x00\x00\x00\xb0\x8c5vA'
tRp4991
ssg18
(dp4992
g13
g2
(g75
S'333\xd3C\xd6\x82A'
tRp4993
sg14
F17.5
sg15
g2
(g75
S'\x00\x00\x00\xc0\x1f\x1fyA'
tRp4994
ssg20
(dp4995
g13
g2
(g75
S'\x00\x00\x00\x00\x00\x00\x00\x00'
tRp4996
sg14
I0
sg15
g2
(g75
S'\x00\x00\x00\x00\x00\x00\x00\x00'
tRp4997
sssg46
(dp4998
g11
(dp4999
g13
I0
sg14
I0
sg15
I0
ssg16
(dp5000
g13
I0
sg14
I0
sg15
I0
ssg18
(dp5001
g13
I0
sg14
I0
sg15
I0
ssg20
(dp5002
g13
I0
sg14
I0
sg15
I0
sssg52
(dp5003
g11
(dp5004
g13
I0
sg14
I0
sg15
I0
ssg16
(dp5005
g13
g2
(g75
S'\x00\x00\x00\xc0r9`A'
tRp5006
sg14
F0
sg15
g2
(g75
S'\x00\x00\x00\x80u"_A'
tRp5007
ssg18
(dp5008
g13
g2
(g75
S'\x9a\x99\x99y\xeeN`A'
tRp5009
sg14
F0
sg15
g2
(g75
S'333\xf3lM_A'
tRp5010
ssg20
(dp5011
g13
g2
(g75
S'333\x93Y\x0coA'
tRp5012
sg14
F0
sg15
g2
(g75
S'fff\x06{\xf2nA'
tRp5013
sssg58
(dp5014
g11
(dp5015
g13
I0
sg14
I0
sg15
I0
ssg16
(dp5016
g13
I0
sg14
I0
sg15
I0
ssg18
(dp5017
g13
I0
sg14
I0
sg15
I0
ssg20
(dp5018
g13
I0
sg14
I0
sg15
I0
sssss.